
thermostat.elf:     file format elf32-avr

Sections:
Idx Name          Size      VMA       LMA       File off  Algn
  0 .data         0000019a  00800100  0000336a  000033fe  2**0
                  CONTENTS, ALLOC, LOAD, DATA
  1 .text         0000336a  00000000  00000000  00000094  2**1
                  CONTENTS, ALLOC, LOAD, READONLY, CODE
  2 .bss          000004bb  0080029a  0080029a  00003598  2**0
                  ALLOC
  3 .comment      0000005c  00000000  00000000  00003598  2**0
                  CONTENTS, READONLY

Disassembly of section .text:

00000000 <.text>:
       0:	0c 94 66 00 	jmp	0xcc	;  0xcc
       4:	0c 94 9c 0f 	jmp	0x1f38	;  0x1f38
       8:	0c 94 c9 0f 	jmp	0x1f92	;  0x1f92
       c:	0c 94 8e 00 	jmp	0x11c	;  0x11c
      10:	0c 94 8e 00 	jmp	0x11c	;  0x11c
      14:	0c 94 8e 00 	jmp	0x11c	;  0x11c
      18:	0c 94 8e 00 	jmp	0x11c	;  0x11c
      1c:	0c 94 8e 00 	jmp	0x11c	;  0x11c
      20:	0c 94 8e 00 	jmp	0x11c	;  0x11c
      24:	0c 94 8e 00 	jmp	0x11c	;  0x11c
      28:	0c 94 8e 00 	jmp	0x11c	;  0x11c
      2c:	0c 94 8e 00 	jmp	0x11c	;  0x11c
      30:	0c 94 8e 00 	jmp	0x11c	;  0x11c
      34:	0c 94 8e 00 	jmp	0x11c	;  0x11c
      38:	0c 94 8e 00 	jmp	0x11c	;  0x11c
      3c:	0c 94 8e 00 	jmp	0x11c	;  0x11c
      40:	0c 94 f6 0f 	jmp	0x1fec	;  0x1fec
      44:	0c 94 8e 00 	jmp	0x11c	;  0x11c
      48:	0c 94 e9 11 	jmp	0x23d2	;  0x23d2
      4c:	0c 94 30 12 	jmp	0x2460	;  0x2460
      50:	0c 94 8e 00 	jmp	0x11c	;  0x11c
      54:	0c 94 8e 00 	jmp	0x11c	;  0x11c
      58:	0c 94 8e 00 	jmp	0x11c	;  0x11c
      5c:	0c 94 8e 00 	jmp	0x11c	;  0x11c
      60:	0c 94 55 01 	jmp	0x2aa	;  0x2aa
      64:	0c 94 8e 00 	jmp	0x11c	;  0x11c
      68:	00 00       	nop
      6a:	00 00       	nop
      6c:	24 00       	.word	0x0024	; ????
      6e:	27 00       	.word	0x0027	; ????
      70:	2a 00       	.word	0x002a	; ????
      72:	00 00       	nop
      74:	00 00       	nop
      76:	25 00       	.word	0x0025	; ????
      78:	28 00       	.word	0x0028	; ????
      7a:	2b 00       	.word	0x002b	; ????
      7c:	00 00       	nop
      7e:	00 00       	nop
      80:	23 00       	.word	0x0023	; ????
      82:	26 00       	.word	0x0026	; ????
      84:	29 00       	.word	0x0029	; ????
      86:	04 04       	cpc	r0, r4
      88:	04 04       	cpc	r0, r4
      8a:	04 04       	cpc	r0, r4
      8c:	04 04       	cpc	r0, r4
      8e:	02 02       	muls	r16, r18
      90:	02 02       	muls	r16, r18
      92:	02 02       	muls	r16, r18
      94:	03 03       	mulsu	r16, r19
      96:	03 03       	mulsu	r16, r19
      98:	03 03       	mulsu	r16, r19
      9a:	01 02       	muls	r16, r17
      9c:	04 08       	sbc	r0, r4
      9e:	10 20       	and	r1, r0
      a0:	40 80       	ld	r4, Z
      a2:	01 02       	muls	r16, r17
      a4:	04 08       	sbc	r0, r4
      a6:	10 20       	and	r1, r0
      a8:	01 02       	muls	r16, r17
      aa:	04 08       	sbc	r0, r4
      ac:	10 20       	and	r1, r0
      ae:	00 00       	nop
      b0:	00 07       	cpc	r16, r16
      b2:	00 02       	muls	r16, r16
      b4:	01 00       	.word	0x0001	; ????
      b6:	00 03       	mulsu	r16, r16
      b8:	04 06       	cpc	r0, r20
	...
      c2:	47 03       	mulsu	r20, r23
      c4:	49 08       	sbc	r4, r9
      c6:	3c 0a       	sbc	r3, r28
      c8:	4a 0f       	add	r20, r26
      ca:	9e 13       	cpse	r25, r30
      cc:	11 24       	eor	r1, r1
      ce:	1f be       	out	0x3f, r1	; 63
      d0:	cf ef       	ldi	r28, 0xFF	; 255
      d2:	d8 e0       	ldi	r29, 0x08	; 8
      d4:	de bf       	out	0x3e, r29	; 62
      d6:	cd bf       	out	0x3d, r28	; 61
      d8:	12 e0       	ldi	r17, 0x02	; 2
      da:	a0 e0       	ldi	r26, 0x00	; 0
      dc:	b1 e0       	ldi	r27, 0x01	; 1
      de:	ea e6       	ldi	r30, 0x6A	; 106
      e0:	f3 e3       	ldi	r31, 0x33	; 51
      e2:	02 c0       	rjmp	.+4      	;  0xe8
      e4:	05 90       	lpm	r0, Z+
      e6:	0d 92       	st	X+, r0
      e8:	aa 39       	cpi	r26, 0x9A	; 154
      ea:	b1 07       	cpc	r27, r17
      ec:	d9 f7       	brne	.-10     	;  0xe4
      ee:	27 e0       	ldi	r18, 0x07	; 7
      f0:	aa e9       	ldi	r26, 0x9A	; 154
      f2:	b2 e0       	ldi	r27, 0x02	; 2
      f4:	01 c0       	rjmp	.+2      	;  0xf8
      f6:	1d 92       	st	X+, r1
      f8:	a5 35       	cpi	r26, 0x55	; 85
      fa:	b2 07       	cpc	r27, r18
      fc:	e1 f7       	brne	.-8      	;  0xf6
      fe:	10 e0       	ldi	r17, 0x00	; 0
     100:	cc ec       	ldi	r28, 0xCC	; 204
     102:	d0 e0       	ldi	r29, 0x00	; 0
     104:	04 c0       	rjmp	.+8      	;  0x10e
     106:	22 97       	sbiw	r28, 0x02	; 2
     108:	fe 01       	movw	r30, r28
     10a:	0e 94 8e 16 	call	0x2d1c	;  0x2d1c
     10e:	c2 3c       	cpi	r28, 0xC2	; 194
     110:	d1 07       	cpc	r29, r17
     112:	c9 f7       	brne	.-14     	;  0x106
     114:	0e 94 ee 13 	call	0x27dc	;  0x27dc
     118:	0c 94 b3 19 	jmp	0x3366	;  0x3366
     11c:	0c 94 00 00 	jmp	0	;  0x0
     120:	f9 99       	sbic	0x1f, 1	; 31
     122:	fe cf       	rjmp	.-4      	;  0x120
     124:	72 bd       	out	0x22, r23	; 34
     126:	61 bd       	out	0x21, r22	; 33
     128:	f8 9a       	sbi	0x1f, 0	; 31
     12a:	80 b5       	in	r24, 0x20	; 32
     12c:	08 95       	ret
     12e:	f9 99       	sbic	0x1f, 1	; 31
     130:	fe cf       	rjmp	.-4      	;  0x12e
     132:	1f ba       	out	0x1f, r1	; 31
     134:	72 bd       	out	0x22, r23	; 34
     136:	61 bd       	out	0x21, r22	; 33
     138:	40 bd       	out	0x20, r20	; 32
     13a:	0f b6       	in	r0, 0x3f	; 63
     13c:	f8 94       	cli
     13e:	fa 9a       	sbi	0x1f, 2	; 31
     140:	f9 9a       	sbi	0x1f, 1	; 31
     142:	0f be       	out	0x3f, r0	; 63
     144:	08 95       	ret
     146:	10 92 08 03 	sts	0x0308, r1
     14a:	61 e0       	ldi	r22, 0x01	; 1
     14c:	84 e1       	ldi	r24, 0x14	; 20
     14e:	0e 94 41 11 	call	0x2282	;  0x2282
     152:	61 e0       	ldi	r22, 0x01	; 1
     154:	85 e1       	ldi	r24, 0x15	; 21
     156:	0e 94 41 11 	call	0x2282	;  0x2282
     15a:	e9 eb       	ldi	r30, 0xB9	; 185
     15c:	f0 e0       	ldi	r31, 0x00	; 0
     15e:	80 81       	ld	r24, Z
     160:	8e 7f       	andi	r24, 0xFE	; 254
     162:	80 83       	st	Z, r24
     164:	80 81       	ld	r24, Z
     166:	8d 7f       	andi	r24, 0xFD	; 253
     168:	80 83       	st	Z, r24
     16a:	80 e2       	ldi	r24, 0x20	; 32
     16c:	80 93 b8 00 	sts	0x00B8, r24
     170:	85 e4       	ldi	r24, 0x45	; 69
     172:	80 93 bc 00 	sts	0x00BC, r24
     176:	08 95       	ret
     178:	41 32       	cpi	r20, 0x21	; 33
     17a:	68 f5       	brcc	.+90     	;  0x1d6
     17c:	90 91 08 03 	lds	r25, 0x0308
     180:	91 11       	cpse	r25, r1
     182:	fc cf       	rjmp	.-8      	;  0x17c
     184:	91 e0       	ldi	r25, 0x01	; 1
     186:	90 93 08 03 	sts	0x0308, r25
     18a:	9f ef       	ldi	r25, 0xFF	; 255
     18c:	90 93 9d 02 	sts	0x029D, r25
     190:	10 92 e2 02 	sts	0x02E2, r1
     194:	94 0f       	add	r25, r20
     196:	90 93 e1 02 	sts	0x02E1, r25
     19a:	88 0f       	add	r24, r24
     19c:	81 60       	ori	r24, 0x01	; 1
     19e:	80 93 07 03 	sts	0x0307, r24
     1a2:	85 ee       	ldi	r24, 0xE5	; 229
     1a4:	80 93 bc 00 	sts	0x00BC, r24
     1a8:	80 91 08 03 	lds	r24, 0x0308
     1ac:	81 30       	cpi	r24, 0x01	; 1
     1ae:	e1 f3       	breq	.-8      	;  0x1a8
     1b0:	80 91 e2 02 	lds	r24, 0x02E2
     1b4:	84 17       	cp	r24, r20
     1b6:	10 f4       	brcc	.+4      	;  0x1bc
     1b8:	40 91 e2 02 	lds	r20, 0x02E2
     1bc:	23 ee       	ldi	r18, 0xE3	; 227
     1be:	32 e0       	ldi	r19, 0x02	; 2
     1c0:	fb 01       	movw	r30, r22
     1c2:	d9 01       	movw	r26, r18
     1c4:	8a 2f       	mov	r24, r26
     1c6:	82 1b       	sub	r24, r18
     1c8:	84 17       	cp	r24, r20
     1ca:	18 f4       	brcc	.+6      	;  0x1d2
     1cc:	8d 91       	ld	r24, X+
     1ce:	81 93       	st	Z+, r24
     1d0:	f9 cf       	rjmp	.-14     	;  0x1c4
     1d2:	84 2f       	mov	r24, r20
     1d4:	08 95       	ret
     1d6:	80 e0       	ldi	r24, 0x00	; 0
     1d8:	08 95       	ret
     1da:	41 32       	cpi	r20, 0x21	; 33
     1dc:	a8 f5       	brcc	.+106    	;  0x248
     1de:	90 91 08 03 	lds	r25, 0x0308
     1e2:	91 11       	cpse	r25, r1
     1e4:	fc cf       	rjmp	.-8      	;  0x1de
     1e6:	92 e0       	ldi	r25, 0x02	; 2
     1e8:	90 93 08 03 	sts	0x0308, r25
     1ec:	9f ef       	ldi	r25, 0xFF	; 255
     1ee:	90 93 9d 02 	sts	0x029D, r25
     1f2:	10 92 e2 02 	sts	0x02E2, r1
     1f6:	40 93 e1 02 	sts	0x02E1, r20
     1fa:	fb 01       	movw	r30, r22
     1fc:	63 ee       	ldi	r22, 0xE3	; 227
     1fe:	72 e0       	ldi	r23, 0x02	; 2
     200:	db 01       	movw	r26, r22
     202:	9a 2f       	mov	r25, r26
     204:	96 1b       	sub	r25, r22
     206:	94 17       	cp	r25, r20
     208:	18 f4       	brcc	.+6      	;  0x210
     20a:	91 91       	ld	r25, Z+
     20c:	9d 93       	st	X+, r25
     20e:	f9 cf       	rjmp	.-14     	;  0x202
     210:	90 e0       	ldi	r25, 0x00	; 0
     212:	88 0f       	add	r24, r24
     214:	99 1f       	adc	r25, r25
     216:	80 93 07 03 	sts	0x0307, r24
     21a:	85 ee       	ldi	r24, 0xE5	; 229
     21c:	80 93 bc 00 	sts	0x00BC, r24
     220:	22 23       	and	r18, r18
     222:	21 f0       	breq	.+8      	;  0x22c
     224:	80 91 08 03 	lds	r24, 0x0308
     228:	82 30       	cpi	r24, 0x02	; 2
     22a:	e1 f3       	breq	.-8      	;  0x224
     22c:	80 91 9d 02 	lds	r24, 0x029D
     230:	8f 3f       	cpi	r24, 0xFF	; 255
     232:	61 f0       	breq	.+24     	;  0x24c
     234:	80 91 9d 02 	lds	r24, 0x029D
     238:	80 32       	cpi	r24, 0x20	; 32
     23a:	51 f0       	breq	.+20     	;  0x250
     23c:	80 91 9d 02 	lds	r24, 0x029D
     240:	80 33       	cpi	r24, 0x30	; 48
     242:	41 f4       	brne	.+16     	;  0x254
     244:	83 e0       	ldi	r24, 0x03	; 3
     246:	08 95       	ret
     248:	81 e0       	ldi	r24, 0x01	; 1
     24a:	08 95       	ret
     24c:	80 e0       	ldi	r24, 0x00	; 0
     24e:	08 95       	ret
     250:	82 e0       	ldi	r24, 0x02	; 2
     252:	08 95       	ret
     254:	84 e0       	ldi	r24, 0x04	; 4
     256:	08 95       	ret
     258:	61 32       	cpi	r22, 0x21	; 33
     25a:	98 f4       	brcc	.+38     	;  0x282
     25c:	20 91 08 03 	lds	r18, 0x0308
     260:	24 30       	cpi	r18, 0x04	; 4
     262:	89 f4       	brne	.+34     	;  0x286
     264:	60 93 bf 02 	sts	0x02BF, r22
     268:	fc 01       	movw	r30, r24
     26a:	81 ec       	ldi	r24, 0xC1	; 193
     26c:	92 e0       	ldi	r25, 0x02	; 2
     26e:	dc 01       	movw	r26, r24
     270:	2a 2f       	mov	r18, r26
     272:	28 1b       	sub	r18, r24
     274:	26 17       	cp	r18, r22
     276:	18 f4       	brcc	.+6      	;  0x27e
     278:	21 91       	ld	r18, Z+
     27a:	2d 93       	st	X+, r18
     27c:	f9 cf       	rjmp	.-14     	;  0x270
     27e:	80 e0       	ldi	r24, 0x00	; 0
     280:	08 95       	ret
     282:	81 e0       	ldi	r24, 0x01	; 1
     284:	08 95       	ret
     286:	82 e0       	ldi	r24, 0x02	; 2
     288:	08 95       	ret
     28a:	85 ed       	ldi	r24, 0xD5	; 213
     28c:	80 93 bc 00 	sts	0x00BC, r24
     290:	80 91 bc 00 	lds	r24, 0x00BC
     294:	84 fd       	sbrc	r24, 4
     296:	fc cf       	rjmp	.-8      	;  0x290
     298:	10 92 08 03 	sts	0x0308, r1
     29c:	08 95       	ret
     29e:	85 ec       	ldi	r24, 0xC5	; 197
     2a0:	80 93 bc 00 	sts	0x00BC, r24
     2a4:	10 92 08 03 	sts	0x0308, r1
     2a8:	08 95       	ret
     2aa:	1f 92       	push	r1
     2ac:	0f 92       	push	r0
     2ae:	0f b6       	in	r0, 0x3f	; 63
     2b0:	0f 92       	push	r0
     2b2:	11 24       	eor	r1, r1
     2b4:	2f 93       	push	r18
     2b6:	3f 93       	push	r19
     2b8:	4f 93       	push	r20
     2ba:	5f 93       	push	r21
     2bc:	6f 93       	push	r22
     2be:	7f 93       	push	r23
     2c0:	8f 93       	push	r24
     2c2:	9f 93       	push	r25
     2c4:	af 93       	push	r26
     2c6:	bf 93       	push	r27
     2c8:	ef 93       	push	r30
     2ca:	ff 93       	push	r31
     2cc:	80 91 b9 00 	lds	r24, 0x00B9
     2d0:	88 7f       	andi	r24, 0xF8	; 248
     2d2:	80 36       	cpi	r24, 0x60	; 96
     2d4:	09 f4       	brne	.+2      	;  0x2d8
     2d6:	95 c0       	rjmp	.+298    	;  0x402
     2d8:	68 f5       	brcc	.+90     	;  0x334
     2da:	88 32       	cpi	r24, 0x28	; 40
     2dc:	09 f4       	brne	.+2      	;  0x2e0
     2de:	5b c0       	rjmp	.+182    	;  0x396
     2e0:	90 f4       	brcc	.+36     	;  0x306
     2e2:	80 31       	cpi	r24, 0x10	; 16
     2e4:	09 f4       	brne	.+2      	;  0x2e8
     2e6:	54 c0       	rjmp	.+168    	;  0x390
     2e8:	38 f4       	brcc	.+14     	;  0x2f8
     2ea:	88 23       	and	r24, r24
     2ec:	09 f4       	brne	.+2      	;  0x2f0
     2ee:	ee c0       	rjmp	.+476    	;  0x4cc
     2f0:	88 30       	cpi	r24, 0x08	; 8
     2f2:	09 f4       	brne	.+2      	;  0x2f6
     2f4:	4d c0       	rjmp	.+154    	;  0x390
     2f6:	ee c0       	rjmp	.+476    	;  0x4d4
     2f8:	88 31       	cpi	r24, 0x18	; 24
     2fa:	09 f4       	brne	.+2      	;  0x2fe
     2fc:	4c c0       	rjmp	.+152    	;  0x396
     2fe:	80 32       	cpi	r24, 0x20	; 32
     300:	09 f4       	brne	.+2      	;  0x304
     302:	5e c0       	rjmp	.+188    	;  0x3c0
     304:	e7 c0       	rjmp	.+462    	;  0x4d4
     306:	80 34       	cpi	r24, 0x40	; 64
     308:	09 f4       	brne	.+2      	;  0x30c
     30a:	69 c0       	rjmp	.+210    	;  0x3de
     30c:	48 f4       	brcc	.+18     	;  0x320
     30e:	80 33       	cpi	r24, 0x30	; 48
     310:	09 f4       	brne	.+2      	;  0x314
     312:	56 c0       	rjmp	.+172    	;  0x3c0
     314:	88 33       	cpi	r24, 0x38	; 56
     316:	09 f0       	breq	.+2      	;  0x31a
     318:	dd c0       	rjmp	.+442    	;  0x4d4
     31a:	80 93 9d 02 	sts	0x029D, r24
     31e:	a1 c0       	rjmp	.+322    	;  0x462
     320:	80 35       	cpi	r24, 0x50	; 80
     322:	09 f4       	brne	.+2      	;  0x326
     324:	50 c0       	rjmp	.+160    	;  0x3c6
     326:	88 35       	cpi	r24, 0x58	; 88
     328:	09 f4       	brne	.+2      	;  0x32c
     32a:	5e c0       	rjmp	.+188    	;  0x3e8
     32c:	88 34       	cpi	r24, 0x48	; 72
     32e:	09 f0       	breq	.+2      	;  0x332
     330:	d1 c0       	rjmp	.+418    	;  0x4d4
     332:	ce c0       	rjmp	.+412    	;  0x4d0
     334:	88 39       	cpi	r24, 0x98	; 152
     336:	09 f4       	brne	.+2      	;  0x33a
     338:	bf c0       	rjmp	.+382    	;  0x4b8
     33a:	a8 f4       	brcc	.+42     	;  0x366
     33c:	88 37       	cpi	r24, 0x78	; 120
     33e:	09 f4       	brne	.+2      	;  0x342
     340:	60 c0       	rjmp	.+192    	;  0x402
     342:	38 f4       	brcc	.+14     	;  0x352
     344:	88 36       	cpi	r24, 0x68	; 104
     346:	09 f4       	brne	.+2      	;  0x34a
     348:	5c c0       	rjmp	.+184    	;  0x402
     34a:	80 37       	cpi	r24, 0x70	; 112
     34c:	09 f4       	brne	.+2      	;  0x350
     34e:	59 c0       	rjmp	.+178    	;  0x402
     350:	c1 c0       	rjmp	.+386    	;  0x4d4
     352:	88 38       	cpi	r24, 0x88	; 136
     354:	09 f4       	brne	.+2      	;  0x358
     356:	b0 c0       	rjmp	.+352    	;  0x4b8
     358:	80 39       	cpi	r24, 0x90	; 144
     35a:	09 f4       	brne	.+2      	;  0x35e
     35c:	58 c0       	rjmp	.+176    	;  0x40e
     35e:	80 38       	cpi	r24, 0x80	; 128
     360:	09 f0       	breq	.+2      	;  0x364
     362:	b8 c0       	rjmp	.+368    	;  0x4d4
     364:	54 c0       	rjmp	.+168    	;  0x40e
     366:	80 3b       	cpi	r24, 0xB0	; 176
     368:	09 f4       	brne	.+2      	;  0x36c
     36a:	7e c0       	rjmp	.+252    	;  0x468
     36c:	38 f4       	brcc	.+14     	;  0x37c
     36e:	80 3a       	cpi	r24, 0xA0	; 160
     370:	09 f4       	brne	.+2      	;  0x374
     372:	5f c0       	rjmp	.+190    	;  0x432
     374:	88 3a       	cpi	r24, 0xA8	; 168
     376:	09 f4       	brne	.+2      	;  0x37a
     378:	77 c0       	rjmp	.+238    	;  0x468
     37a:	ac c0       	rjmp	.+344    	;  0x4d4
     37c:	80 3c       	cpi	r24, 0xC0	; 192
     37e:	09 f4       	brne	.+2      	;  0x382
     380:	9f c0       	rjmp	.+318    	;  0x4c0
     382:	88 3c       	cpi	r24, 0xC8	; 200
     384:	09 f4       	brne	.+2      	;  0x388
     386:	9c c0       	rjmp	.+312    	;  0x4c0
     388:	88 3b       	cpi	r24, 0xB8	; 184
     38a:	09 f4       	brne	.+2      	;  0x38e
     38c:	82 c0       	rjmp	.+260    	;  0x492
     38e:	a2 c0       	rjmp	.+324    	;  0x4d4
     390:	80 91 07 03 	lds	r24, 0x0307
     394:	11 c0       	rjmp	.+34     	;  0x3b8
     396:	90 91 e2 02 	lds	r25, 0x02E2
     39a:	80 91 e1 02 	lds	r24, 0x02E1
     39e:	98 17       	cp	r25, r24
     3a0:	08 f0       	brcs	.+2      	;  0x3a4
     3a2:	96 c0       	rjmp	.+300    	;  0x4d0
     3a4:	e0 91 e2 02 	lds	r30, 0x02E2
     3a8:	81 e0       	ldi	r24, 0x01	; 1
     3aa:	8e 0f       	add	r24, r30
     3ac:	80 93 e2 02 	sts	0x02E2, r24
     3b0:	f0 e0       	ldi	r31, 0x00	; 0
     3b2:	ed 51       	subi	r30, 0x1D	; 29
     3b4:	fd 4f       	sbci	r31, 0xFD	; 253
     3b6:	80 81       	ld	r24, Z
     3b8:	80 93 bb 00 	sts	0x00BB, r24
     3bc:	85 ec       	ldi	r24, 0xC5	; 197
     3be:	7d c0       	rjmp	.+250    	;  0x4ba
     3c0:	80 93 9d 02 	sts	0x029D, r24
     3c4:	85 c0       	rjmp	.+266    	;  0x4d0
     3c6:	e0 91 e2 02 	lds	r30, 0x02E2
     3ca:	81 e0       	ldi	r24, 0x01	; 1
     3cc:	8e 0f       	add	r24, r30
     3ce:	80 93 e2 02 	sts	0x02E2, r24
     3d2:	80 91 bb 00 	lds	r24, 0x00BB
     3d6:	f0 e0       	ldi	r31, 0x00	; 0
     3d8:	ed 51       	subi	r30, 0x1D	; 29
     3da:	fd 4f       	sbci	r31, 0xFD	; 253
     3dc:	80 83       	st	Z, r24
     3de:	90 91 e2 02 	lds	r25, 0x02E2
     3e2:	80 91 e1 02 	lds	r24, 0x02E1
     3e6:	65 c0       	rjmp	.+202    	;  0x4b2
     3e8:	e0 91 e2 02 	lds	r30, 0x02E2
     3ec:	81 e0       	ldi	r24, 0x01	; 1
     3ee:	8e 0f       	add	r24, r30
     3f0:	80 93 e2 02 	sts	0x02E2, r24
     3f4:	80 91 bb 00 	lds	r24, 0x00BB
     3f8:	f0 e0       	ldi	r31, 0x00	; 0
     3fa:	ed 51       	subi	r30, 0x1D	; 29
     3fc:	fd 4f       	sbci	r31, 0xFD	; 253
     3fe:	80 83       	st	Z, r24
     400:	67 c0       	rjmp	.+206    	;  0x4d0
     402:	83 e0       	ldi	r24, 0x03	; 3
     404:	80 93 08 03 	sts	0x0308, r24
     408:	10 92 9e 02 	sts	0x029E, r1
     40c:	d7 cf       	rjmp	.-82     	;  0x3bc
     40e:	80 91 9e 02 	lds	r24, 0x029E
     412:	80 32       	cpi	r24, 0x20	; 32
     414:	08 f0       	brcs	.+2      	;  0x418
     416:	50 c0       	rjmp	.+160    	;  0x4b8
     418:	e0 91 9e 02 	lds	r30, 0x029E
     41c:	81 e0       	ldi	r24, 0x01	; 1
     41e:	8e 0f       	add	r24, r30
     420:	80 93 9e 02 	sts	0x029E, r24
     424:	80 91 bb 00 	lds	r24, 0x00BB
     428:	f0 e0       	ldi	r31, 0x00	; 0
     42a:	e1 56       	subi	r30, 0x61	; 97
     42c:	fd 4f       	sbci	r31, 0xFD	; 253
     42e:	80 83       	st	Z, r24
     430:	c5 cf       	rjmp	.-118    	;  0x3bc
     432:	80 91 9e 02 	lds	r24, 0x029E
     436:	80 32       	cpi	r24, 0x20	; 32
     438:	30 f4       	brcc	.+12     	;  0x446
     43a:	e0 91 9e 02 	lds	r30, 0x029E
     43e:	f0 e0       	ldi	r31, 0x00	; 0
     440:	e1 56       	subi	r30, 0x61	; 97
     442:	fd 4f       	sbci	r31, 0xFD	; 253
     444:	10 82       	st	Z, r1
     446:	0e 94 45 01 	call	0x28a	;  0x28a
     44a:	60 91 9e 02 	lds	r22, 0x029E
     44e:	70 e0       	ldi	r23, 0x00	; 0
     450:	e0 91 03 03 	lds	r30, 0x0303
     454:	f0 91 04 03 	lds	r31, 0x0304
     458:	8f e9       	ldi	r24, 0x9F	; 159
     45a:	92 e0       	ldi	r25, 0x02	; 2
     45c:	09 95       	icall
     45e:	10 92 9e 02 	sts	0x029E, r1
     462:	0e 94 4f 01 	call	0x29e	;  0x29e
     466:	36 c0       	rjmp	.+108    	;  0x4d4
     468:	84 e0       	ldi	r24, 0x04	; 4
     46a:	80 93 08 03 	sts	0x0308, r24
     46e:	10 92 c0 02 	sts	0x02C0, r1
     472:	10 92 bf 02 	sts	0x02BF, r1
     476:	e0 91 05 03 	lds	r30, 0x0305
     47a:	f0 91 06 03 	lds	r31, 0x0306
     47e:	09 95       	icall
     480:	80 91 bf 02 	lds	r24, 0x02BF
     484:	81 11       	cpse	r24, r1
     486:	05 c0       	rjmp	.+10     	;  0x492
     488:	81 e0       	ldi	r24, 0x01	; 1
     48a:	80 93 bf 02 	sts	0x02BF, r24
     48e:	10 92 c1 02 	sts	0x02C1, r1
     492:	e0 91 c0 02 	lds	r30, 0x02C0
     496:	81 e0       	ldi	r24, 0x01	; 1
     498:	8e 0f       	add	r24, r30
     49a:	80 93 c0 02 	sts	0x02C0, r24
     49e:	f0 e0       	ldi	r31, 0x00	; 0
     4a0:	ef 53       	subi	r30, 0x3F	; 63
     4a2:	fd 4f       	sbci	r31, 0xFD	; 253
     4a4:	80 81       	ld	r24, Z
     4a6:	80 93 bb 00 	sts	0x00BB, r24
     4aa:	90 91 c0 02 	lds	r25, 0x02C0
     4ae:	80 91 bf 02 	lds	r24, 0x02BF
     4b2:	98 17       	cp	r25, r24
     4b4:	08 f4       	brcc	.+2      	;  0x4b8
     4b6:	82 cf       	rjmp	.-252    	;  0x3bc
     4b8:	85 e8       	ldi	r24, 0x85	; 133
     4ba:	80 93 bc 00 	sts	0x00BC, r24
     4be:	0a c0       	rjmp	.+20     	;  0x4d4
     4c0:	85 ec       	ldi	r24, 0xC5	; 197
     4c2:	80 93 bc 00 	sts	0x00BC, r24
     4c6:	10 92 08 03 	sts	0x0308, r1
     4ca:	04 c0       	rjmp	.+8      	;  0x4d4
     4cc:	10 92 9d 02 	sts	0x029D, r1
     4d0:	0e 94 45 01 	call	0x28a	;  0x28a
     4d4:	ff 91       	pop	r31
     4d6:	ef 91       	pop	r30
     4d8:	bf 91       	pop	r27
     4da:	af 91       	pop	r26
     4dc:	9f 91       	pop	r25
     4de:	8f 91       	pop	r24
     4e0:	7f 91       	pop	r23
     4e2:	6f 91       	pop	r22
     4e4:	5f 91       	pop	r21
     4e6:	4f 91       	pop	r20
     4e8:	3f 91       	pop	r19
     4ea:	2f 91       	pop	r18
     4ec:	0f 90       	pop	r0
     4ee:	0f be       	out	0x3f, r0	; 63
     4f0:	0f 90       	pop	r0
     4f2:	1f 90       	pop	r1
     4f4:	18 95       	reti
     4f6:	80 91 39 03 	lds	r24, 0x0339
     4fa:	90 e0       	ldi	r25, 0x00	; 0
     4fc:	20 91 3a 03 	lds	r18, 0x033A
     500:	82 1b       	sub	r24, r18
     502:	91 09       	sbc	r25, r1
     504:	08 95       	ret
     506:	20 91 3a 03 	lds	r18, 0x033A
     50a:	80 91 39 03 	lds	r24, 0x0339
     50e:	28 17       	cp	r18, r24
     510:	50 f4       	brcc	.+20     	;  0x526
     512:	e2 2f       	mov	r30, r18
     514:	f0 e0       	ldi	r31, 0x00	; 0
     516:	e5 5c       	subi	r30, 0xC5	; 197
     518:	fc 4f       	sbci	r31, 0xFC	; 252
     51a:	80 81       	ld	r24, Z
     51c:	90 e0       	ldi	r25, 0x00	; 0
     51e:	2f 5f       	subi	r18, 0xFF	; 255
     520:	20 93 3a 03 	sts	0x033A, r18
     524:	08 95       	ret
     526:	8f ef       	ldi	r24, 0xFF	; 255
     528:	9f ef       	ldi	r25, 0xFF	; 255
     52a:	08 95       	ret
     52c:	e0 91 3a 03 	lds	r30, 0x033A
     530:	80 91 39 03 	lds	r24, 0x0339
     534:	e8 17       	cp	r30, r24
     536:	30 f4       	brcc	.+12     	;  0x544
     538:	f0 e0       	ldi	r31, 0x00	; 0
     53a:	e5 5c       	subi	r30, 0xC5	; 197
     53c:	fc 4f       	sbci	r31, 0xFC	; 252
     53e:	80 81       	ld	r24, Z
     540:	90 e0       	ldi	r25, 0x00	; 0
     542:	08 95       	ret
     544:	8f ef       	ldi	r24, 0xFF	; 255
     546:	9f ef       	ldi	r25, 0xFF	; 255
     548:	08 95       	ret
     54a:	08 95       	ret
     54c:	cf 92       	push	r12
     54e:	df 92       	push	r13
     550:	ef 92       	push	r14
     552:	ff 92       	push	r15
     554:	0f 93       	push	r16
     556:	1f 93       	push	r17
     558:	cf 93       	push	r28
     55a:	df 93       	push	r29
     55c:	7c 01       	movw	r14, r24
     55e:	cb 01       	movw	r24, r22
     560:	8a 01       	movw	r16, r20
     562:	20 91 15 03 	lds	r18, 0x0315
     566:	22 23       	and	r18, r18
     568:	89 f0       	breq	.+34     	;  0x58c
     56a:	eb 01       	movw	r28, r22
     56c:	6b 01       	movw	r12, r22
     56e:	c4 0e       	add	r12, r20
     570:	d5 1e       	adc	r13, r21
     572:	cc 15       	cp	r28, r12
     574:	dd 05       	cpc	r29, r13
     576:	69 f0       	breq	.+26     	;  0x592
     578:	69 91       	ld	r22, Y+
     57a:	d7 01       	movw	r26, r14
     57c:	ed 91       	ld	r30, X+
     57e:	fc 91       	ld	r31, X
     580:	01 90       	ld	r0, Z+
     582:	f0 81       	ld	r31, Z
     584:	e0 2d       	mov	r30, r0
     586:	c7 01       	movw	r24, r14
     588:	09 95       	icall
     58a:	f3 cf       	rjmp	.-26     	;  0x572
     58c:	64 2f       	mov	r22, r20
     58e:	0e 94 2c 01 	call	0x258	;  0x258
     592:	c8 01       	movw	r24, r16
     594:	df 91       	pop	r29
     596:	cf 91       	pop	r28
     598:	1f 91       	pop	r17
     59a:	0f 91       	pop	r16
     59c:	ff 90       	pop	r15
     59e:	ef 90       	pop	r14
     5a0:	df 90       	pop	r13
     5a2:	cf 90       	pop	r12
     5a4:	08 95       	ret
     5a6:	cf 93       	push	r28
     5a8:	df 93       	push	r29
     5aa:	1f 92       	push	r1
     5ac:	cd b7       	in	r28, 0x3d	; 61
     5ae:	de b7       	in	r29, 0x3e	; 62
     5b0:	69 83       	std	Y+1, r22	; 0x01
     5b2:	20 91 15 03 	lds	r18, 0x0315
     5b6:	22 23       	and	r18, r18
     5b8:	d1 f0       	breq	.+52     	;  0x5ee
     5ba:	20 91 16 03 	lds	r18, 0x0316
     5be:	20 32       	cpi	r18, 0x20	; 32
     5c0:	40 f0       	brcs	.+16     	;  0x5d2
     5c2:	21 e0       	ldi	r18, 0x01	; 1
     5c4:	30 e0       	ldi	r19, 0x00	; 0
     5c6:	fc 01       	movw	r30, r24
     5c8:	33 83       	std	Z+3, r19	; 0x03
     5ca:	22 83       	std	Z+2, r18	; 0x02
     5cc:	80 e0       	ldi	r24, 0x00	; 0
     5ce:	90 e0       	ldi	r25, 0x00	; 0
     5d0:	15 c0       	rjmp	.+42     	;  0x5fc
     5d2:	80 91 17 03 	lds	r24, 0x0317
     5d6:	e8 2f       	mov	r30, r24
     5d8:	f0 e0       	ldi	r31, 0x00	; 0
     5da:	e8 5e       	subi	r30, 0xE8	; 232
     5dc:	fc 4f       	sbci	r31, 0xFC	; 252
     5de:	99 81       	ldd	r25, Y+1	; 0x01
     5e0:	90 83       	st	Z, r25
     5e2:	8f 5f       	subi	r24, 0xFF	; 255
     5e4:	80 93 17 03 	sts	0x0317, r24
     5e8:	80 93 16 03 	sts	0x0316, r24
     5ec:	05 c0       	rjmp	.+10     	;  0x5f8
     5ee:	61 e0       	ldi	r22, 0x01	; 1
     5f0:	ce 01       	movw	r24, r28
     5f2:	01 96       	adiw	r24, 0x01	; 1
     5f4:	0e 94 2c 01 	call	0x258	;  0x258
     5f8:	81 e0       	ldi	r24, 0x01	; 1
     5fa:	90 e0       	ldi	r25, 0x00	; 0
     5fc:	0f 90       	pop	r0
     5fe:	df 91       	pop	r29
     600:	cf 91       	pop	r28
     602:	08 95       	ret
     604:	fc 01       	movw	r30, r24
     606:	13 82       	std	Z+3, r1	; 0x03
     608:	12 82       	std	Z+2, r1	; 0x02
     60a:	48 ee       	ldi	r20, 0xE8	; 232
     60c:	53 e0       	ldi	r21, 0x03	; 3
     60e:	60 e0       	ldi	r22, 0x00	; 0
     610:	70 e0       	ldi	r23, 0x00	; 0
     612:	44 83       	std	Z+4, r20	; 0x04
     614:	55 83       	std	Z+5, r21	; 0x05
     616:	66 83       	std	Z+6, r22	; 0x06
     618:	77 83       	std	Z+7, r23	; 0x07
     61a:	80 e1       	ldi	r24, 0x10	; 16
     61c:	91 e0       	ldi	r25, 0x01	; 1
     61e:	91 83       	std	Z+1, r25	; 0x01
     620:	80 83       	st	Z, r24
     622:	08 95       	ret
     624:	10 92 3a 03 	sts	0x033A, r1
     628:	10 92 39 03 	sts	0x0339, r1
     62c:	10 92 17 03 	sts	0x0317, r1
     630:	10 92 16 03 	sts	0x0316, r1
     634:	0c 94 a3 00 	jmp	0x146	;  0x146
     638:	86 2f       	mov	r24, r22
     63a:	41 32       	cpi	r20, 0x21	; 33
     63c:	08 f0       	brcs	.+2      	;  0x640
     63e:	40 e2       	ldi	r20, 0x20	; 32
     640:	6b e3       	ldi	r22, 0x3B	; 59
     642:	73 e0       	ldi	r23, 0x03	; 3
     644:	0e 94 bc 00 	call	0x178	;  0x178
     648:	10 92 3a 03 	sts	0x033A, r1
     64c:	80 93 39 03 	sts	0x0339, r24
     650:	08 95       	ret
     652:	0c 94 1c 03 	jmp	0x638	;  0x638
     656:	81 e0       	ldi	r24, 0x01	; 1
     658:	80 93 15 03 	sts	0x0315, r24
     65c:	60 93 38 03 	sts	0x0338, r22
     660:	10 92 17 03 	sts	0x0317, r1
     664:	10 92 16 03 	sts	0x0316, r1
     668:	08 95       	ret
     66a:	0c 94 2b 03 	jmp	0x656	;  0x656
     66e:	21 e0       	ldi	r18, 0x01	; 1
     670:	40 91 16 03 	lds	r20, 0x0316
     674:	68 e1       	ldi	r22, 0x18	; 24
     676:	73 e0       	ldi	r23, 0x03	; 3
     678:	80 91 38 03 	lds	r24, 0x0338
     67c:	0e 94 ed 00 	call	0x1da	;  0x1da
     680:	10 92 17 03 	sts	0x0317, r1
     684:	10 92 16 03 	sts	0x0316, r1
     688:	10 92 15 03 	sts	0x0315, r1
     68c:	08 95       	ret
     68e:	89 e0       	ldi	r24, 0x09	; 9
     690:	93 e0       	ldi	r25, 0x03	; 3
     692:	0c 94 02 03 	jmp	0x604	;  0x604
     696:	cf 92       	push	r12
     698:	df 92       	push	r13
     69a:	ef 92       	push	r14
     69c:	ff 92       	push	r15
     69e:	0f 93       	push	r16
     6a0:	1f 93       	push	r17
     6a2:	cf 93       	push	r28
     6a4:	df 93       	push	r29
     6a6:	cd b7       	in	r28, 0x3d	; 61
     6a8:	de b7       	in	r29, 0x3e	; 62
     6aa:	2a 97       	sbiw	r28, 0x0a	; 10
     6ac:	0f b6       	in	r0, 0x3f	; 63
     6ae:	f8 94       	cli
     6b0:	de bf       	out	0x3e, r29	; 62
     6b2:	0f be       	out	0x3f, r0	; 63
     6b4:	cd bf       	out	0x3d, r28	; 61
     6b6:	8c 01       	movw	r16, r24
     6b8:	6b 01       	movw	r12, r22
     6ba:	7c 01       	movw	r14, r24
     6bc:	82 e0       	ldi	r24, 0x02	; 2
     6be:	e8 0e       	add	r14, r24
     6c0:	f1 1c       	adc	r15, r1
     6c2:	c7 01       	movw	r24, r14
     6c4:	0e 94 2e 06 	call	0xc5c	;  0xc5c
     6c8:	c8 01       	movw	r24, r16
     6ca:	0c 96       	adiw	r24, 0x0c	; 12
     6cc:	0e 94 a9 07 	call	0xf52	;  0xf52
     6d0:	f8 01       	movw	r30, r16
     6d2:	d1 82       	std	Z+1, r13	; 0x01
     6d4:	c0 82       	st	Z, r12
     6d6:	ce 01       	movw	r24, r28
     6d8:	01 96       	adiw	r24, 0x01	; 1
     6da:	0e 94 2e 06 	call	0xc5c	;  0xc5c
     6de:	8a e0       	ldi	r24, 0x0A	; 10
     6e0:	fe 01       	movw	r30, r28
     6e2:	31 96       	adiw	r30, 0x01	; 1
     6e4:	d7 01       	movw	r26, r14
     6e6:	01 90       	ld	r0, Z+
     6e8:	0d 92       	st	X+, r0
     6ea:	8a 95       	dec	r24
     6ec:	e1 f7       	brne	.-8      	;  0x6e6
     6ee:	ce 01       	movw	r24, r28
     6f0:	01 96       	adiw	r24, 0x01	; 1
     6f2:	0e 94 a9 07 	call	0xf52	;  0xf52
     6f6:	8c 81       	ldd	r24, Y+4	; 0x04
     6f8:	9b 81       	ldd	r25, Y+3	; 0x03
     6fa:	f8 01       	movw	r30, r16
     6fc:	96 87       	std	Z+14, r25	; 0x0e
     6fe:	87 87       	std	Z+15, r24	; 0x0f
     700:	8d 81       	ldd	r24, Y+5	; 0x05
     702:	9e 81       	ldd	r25, Y+6	; 0x06
     704:	91 8b       	std	Z+17, r25	; 0x11
     706:	80 8b       	std	Z+16, r24	; 0x10
     708:	8f 81       	ldd	r24, Y+7	; 0x07
     70a:	98 85       	ldd	r25, Y+8	; 0x08
     70c:	93 8b       	std	Z+19, r25	; 0x13
     70e:	82 8b       	std	Z+18, r24	; 0x12
     710:	89 85       	ldd	r24, Y+9	; 0x09
     712:	84 8b       	std	Z+20, r24	; 0x14
     714:	2a 96       	adiw	r28, 0x0a	; 10
     716:	0f b6       	in	r0, 0x3f	; 63
     718:	f8 94       	cli
     71a:	de bf       	out	0x3e, r29	; 62
     71c:	0f be       	out	0x3f, r0	; 63
     71e:	cd bf       	out	0x3d, r28	; 61
     720:	df 91       	pop	r29
     722:	cf 91       	pop	r28
     724:	1f 91       	pop	r17
     726:	0f 91       	pop	r16
     728:	ff 90       	pop	r15
     72a:	ef 90       	pop	r14
     72c:	df 90       	pop	r13
     72e:	cf 90       	pop	r12
     730:	08 95       	ret
     732:	ef 92       	push	r14
     734:	ff 92       	push	r15
     736:	0f 93       	push	r16
     738:	1f 93       	push	r17
     73a:	cf 93       	push	r28
     73c:	df 93       	push	r29
     73e:	00 d0       	rcall	.+0      	;  0x740
     740:	cd b7       	in	r28, 0x3d	; 61
     742:	de b7       	in	r29, 0x3e	; 62
     744:	7c 01       	movw	r14, r24
     746:	83 e5       	ldi	r24, 0x53	; 83
     748:	89 83       	std	Y+1, r24	; 0x01
     74a:	89 e4       	ldi	r24, 0x49	; 73
     74c:	8a 83       	std	Y+2, r24	; 0x02
     74e:	87 01       	movw	r16, r14
     750:	04 5f       	subi	r16, 0xF4	; 244
     752:	1f 4f       	sbci	r17, 0xFF	; 255
     754:	be 01       	movw	r22, r28
     756:	6f 5f       	subi	r22, 0xFF	; 255
     758:	7f 4f       	sbci	r23, 0xFF	; 255
     75a:	c8 01       	movw	r24, r16
     75c:	0e 94 b8 07 	call	0xf70	;  0xf70
     760:	60 e0       	ldi	r22, 0x00	; 0
     762:	c8 01       	movw	r24, r16
     764:	0e 94 79 07 	call	0xef2	;  0xef2
     768:	b8 01       	movw	r22, r16
     76a:	f7 01       	movw	r30, r14
     76c:	80 81       	ld	r24, Z
     76e:	91 81       	ldd	r25, Z+1	; 0x01
     770:	0e 94 d9 07 	call	0xfb2	;  0xfb2
     774:	0f 90       	pop	r0
     776:	0f 90       	pop	r0
     778:	df 91       	pop	r29
     77a:	cf 91       	pop	r28
     77c:	1f 91       	pop	r17
     77e:	0f 91       	pop	r16
     780:	ff 90       	pop	r15
     782:	ef 90       	pop	r14
     784:	08 95       	ret
     786:	0f 93       	push	r16
     788:	1f 93       	push	r17
     78a:	cf 93       	push	r28
     78c:	df 93       	push	r29
     78e:	cd b7       	in	r28, 0x3d	; 61
     790:	de b7       	in	r29, 0x3e	; 62
     792:	63 97       	sbiw	r28, 0x13	; 19
     794:	0f b6       	in	r0, 0x3f	; 63
     796:	f8 94       	cli
     798:	de bf       	out	0x3e, r29	; 62
     79a:	0f be       	out	0x3f, r0	; 63
     79c:	cd bf       	out	0x3d, r28	; 61
     79e:	8c 01       	movw	r16, r24
     7a0:	ce 01       	movw	r24, r28
     7a2:	01 96       	adiw	r24, 0x01	; 1
     7a4:	0e 94 8a 07 	call	0xf14	;  0xf14
     7a8:	60 e0       	ldi	r22, 0x00	; 0
     7aa:	ce 01       	movw	r24, r28
     7ac:	01 96       	adiw	r24, 0x01	; 1
     7ae:	0e 94 79 07 	call	0xef2	;  0xef2
     7b2:	be 01       	movw	r22, r28
     7b4:	6f 5f       	subi	r22, 0xFF	; 255
     7b6:	7f 4f       	sbci	r23, 0xFF	; 255
     7b8:	f8 01       	movw	r30, r16
     7ba:	80 81       	ld	r24, Z
     7bc:	91 81       	ldd	r25, Z+1	; 0x01
     7be:	0e 94 d9 07 	call	0xfb2	;  0xfb2
     7c2:	63 96       	adiw	r28, 0x13	; 19
     7c4:	0f b6       	in	r0, 0x3f	; 63
     7c6:	f8 94       	cli
     7c8:	de bf       	out	0x3e, r29	; 62
     7ca:	0f be       	out	0x3f, r0	; 63
     7cc:	cd bf       	out	0x3d, r28	; 61
     7ce:	df 91       	pop	r29
     7d0:	cf 91       	pop	r28
     7d2:	1f 91       	pop	r17
     7d4:	0f 91       	pop	r16
     7d6:	08 95       	ret
     7d8:	0f 93       	push	r16
     7da:	1f 93       	push	r17
     7dc:	cf 93       	push	r28
     7de:	df 93       	push	r29
     7e0:	8c 01       	movw	r16, r24
     7e2:	ec 01       	movw	r28, r24
     7e4:	22 96       	adiw	r28, 0x02	; 2
     7e6:	68 ec       	ldi	r22, 0xC8	; 200
     7e8:	70 e0       	ldi	r23, 0x00	; 0
     7ea:	f8 01       	movw	r30, r16
     7ec:	80 81       	ld	r24, Z
     7ee:	91 81       	ldd	r25, Z+1	; 0x01
     7f0:	0e 94 4d 07 	call	0xe9a	;  0xe9a
     7f4:	88 23       	and	r24, r24
     7f6:	f1 f0       	breq	.+60     	;  0x834
     7f8:	f8 01       	movw	r30, r16
     7fa:	80 81       	ld	r24, Z
     7fc:	91 81       	ldd	r25, Z+1	; 0x01
     7fe:	0e 94 be 06 	call	0xd7c	;  0xd7c
     802:	0e 94 5e 05 	call	0xabc	;  0xabc
     806:	88 38       	cpi	r24, 0x88	; 136
     808:	71 f7       	brne	.-36     	;  0x7e6
     80a:	f8 01       	movw	r30, r16
     80c:	80 81       	ld	r24, Z
     80e:	91 81       	ldd	r25, Z+1	; 0x01
     810:	0e 94 be 06 	call	0xd7c	;  0xd7c
     814:	be 01       	movw	r22, r28
     816:	0e 94 46 06 	call	0xc8c	;  0xc8c
     81a:	ce 01       	movw	r24, r28
     81c:	0e 94 3e 06 	call	0xc7c	;  0xc7c
     820:	88 23       	and	r24, r24
     822:	09 f3       	breq	.-62     	;  0x7e6
     824:	ce 01       	movw	r24, r28
     826:	0e 94 33 06 	call	0xc66	;  0xc66
     82a:	ce 01       	movw	r24, r28
     82c:	0e 94 2f 06 	call	0xc5e	;  0xc5e
     830:	90 e0       	ldi	r25, 0x00	; 0
     832:	02 c0       	rjmp	.+4      	;  0x838
     834:	80 e0       	ldi	r24, 0x00	; 0
     836:	90 e0       	ldi	r25, 0x00	; 0
     838:	df 91       	pop	r29
     83a:	cf 91       	pop	r28
     83c:	1f 91       	pop	r17
     83e:	0f 91       	pop	r16
     840:	08 95       	ret
     842:	ef 92       	push	r14
     844:	ff 92       	push	r15
     846:	0f 93       	push	r16
     848:	1f 93       	push	r17
     84a:	cf 93       	push	r28
     84c:	df 93       	push	r29
     84e:	00 d0       	rcall	.+0      	;  0x850
     850:	cd b7       	in	r28, 0x3d	; 61
     852:	de b7       	in	r29, 0x3e	; 62
     854:	8c 01       	movw	r16, r24
     856:	84 e4       	ldi	r24, 0x44	; 68
     858:	89 83       	std	Y+1, r24	; 0x01
     85a:	82 e4       	ldi	r24, 0x42	; 66
     85c:	8a 83       	std	Y+2, r24	; 0x02
     85e:	78 01       	movw	r14, r16
     860:	8c e0       	ldi	r24, 0x0C	; 12
     862:	e8 0e       	add	r14, r24
     864:	f1 1c       	adc	r15, r1
     866:	be 01       	movw	r22, r28
     868:	6f 5f       	subi	r22, 0xFF	; 255
     86a:	7f 4f       	sbci	r23, 0xFF	; 255
     86c:	c7 01       	movw	r24, r14
     86e:	0e 94 b8 07 	call	0xf70	;  0xf70
     872:	61 e0       	ldi	r22, 0x01	; 1
     874:	c7 01       	movw	r24, r14
     876:	0e 94 79 07 	call	0xef2	;  0xef2
     87a:	b7 01       	movw	r22, r14
     87c:	f8 01       	movw	r30, r16
     87e:	80 81       	ld	r24, Z
     880:	91 81       	ldd	r25, Z+1	; 0x01
     882:	0e 94 d9 07 	call	0xfb2	;  0xfb2
     886:	65 e0       	ldi	r22, 0x05	; 5
     888:	70 e0       	ldi	r23, 0x00	; 0
     88a:	80 e0       	ldi	r24, 0x00	; 0
     88c:	90 e0       	ldi	r25, 0x00	; 0
     88e:	0e 94 58 10 	call	0x20b0	;  0x20b0
     892:	60 e0       	ldi	r22, 0x00	; 0
     894:	70 e0       	ldi	r23, 0x00	; 0
     896:	c8 01       	movw	r24, r16
     898:	0e 94 ec 03 	call	0x7d8	;  0x7d8
     89c:	18 16       	cp	r1, r24
     89e:	19 06       	cpc	r1, r25
     8a0:	1c f4       	brge	.+6      	;  0x8a8
     8a2:	80 91 00 00 	lds	r24, 0x0000
     8a6:	01 c0       	rjmp	.+2      	;  0x8aa
     8a8:	80 e0       	ldi	r24, 0x00	; 0
     8aa:	0f 90       	pop	r0
     8ac:	0f 90       	pop	r0
     8ae:	df 91       	pop	r29
     8b0:	cf 91       	pop	r28
     8b2:	1f 91       	pop	r17
     8b4:	0f 91       	pop	r16
     8b6:	ff 90       	pop	r15
     8b8:	ef 90       	pop	r14
     8ba:	08 95       	ret
     8bc:	0f 93       	push	r16
     8be:	1f 93       	push	r17
     8c0:	cf 93       	push	r28
     8c2:	df 93       	push	r29
     8c4:	cd b7       	in	r28, 0x3d	; 61
     8c6:	de b7       	in	r29, 0x3e	; 62
     8c8:	64 97       	sbiw	r28, 0x14	; 20
     8ca:	0f b6       	in	r0, 0x3f	; 63
     8cc:	f8 94       	cli
     8ce:	de bf       	out	0x3e, r29	; 62
     8d0:	0f be       	out	0x3f, r0	; 63
     8d2:	cd bf       	out	0x3d, r28	; 61
     8d4:	16 2f       	mov	r17, r22
     8d6:	60 e4       	ldi	r22, 0x40	; 64
     8d8:	70 e0       	ldi	r23, 0x00	; 0
     8da:	89 e0       	ldi	r24, 0x09	; 9
     8dc:	93 e0       	ldi	r25, 0x03	; 3
     8de:	0e 94 35 03 	call	0x66a	;  0x66a
     8e2:	61 2f       	mov	r22, r17
     8e4:	89 e0       	ldi	r24, 0x09	; 9
     8e6:	93 e0       	ldi	r25, 0x03	; 3
     8e8:	0e 94 d3 02 	call	0x5a6	;  0x5a6
     8ec:	6a e0       	ldi	r22, 0x0A	; 10
     8ee:	70 e0       	ldi	r23, 0x00	; 0
     8f0:	80 e0       	ldi	r24, 0x00	; 0
     8f2:	90 e0       	ldi	r25, 0x00	; 0
     8f4:	0e 94 58 10 	call	0x20b0	;  0x20b0
     8f8:	89 e0       	ldi	r24, 0x09	; 9
     8fa:	93 e0       	ldi	r25, 0x03	; 3
     8fc:	0e 94 37 03 	call	0x66e	;  0x66e
     900:	43 e0       	ldi	r20, 0x03	; 3
     902:	50 e0       	ldi	r21, 0x00	; 0
     904:	60 e4       	ldi	r22, 0x40	; 64
     906:	70 e0       	ldi	r23, 0x00	; 0
     908:	89 e0       	ldi	r24, 0x09	; 9
     90a:	93 e0       	ldi	r25, 0x03	; 3
     90c:	0e 94 29 03 	call	0x652	;  0x652
     910:	10 e0       	ldi	r17, 0x00	; 0
     912:	89 e0       	ldi	r24, 0x09	; 9
     914:	93 e0       	ldi	r25, 0x03	; 3
     916:	0e 94 7b 02 	call	0x4f6	;  0x4f6
     91a:	03 97       	sbiw	r24, 0x03	; 3
     91c:	2c f4       	brge	.+10     	;  0x928
     91e:	14 36       	cpi	r17, 0x64	; 100
     920:	39 f5       	brne	.+78     	;  0x970
     922:	80 e0       	ldi	r24, 0x00	; 0
     924:	90 e0       	ldi	r25, 0x00	; 0
     926:	2c c0       	rjmp	.+88     	;  0x980
     928:	14 36       	cpi	r17, 0x64	; 100
     92a:	d9 f3       	breq	.-10     	;  0x922
     92c:	89 e0       	ldi	r24, 0x09	; 9
     92e:	93 e0       	ldi	r25, 0x03	; 3
     930:	0e 94 83 02 	call	0x506	;  0x506
     934:	00 e0       	ldi	r16, 0x00	; 0
     936:	10 e0       	ldi	r17, 0x00	; 0
     938:	18 2f       	mov	r17, r24
     93a:	89 e0       	ldi	r24, 0x09	; 9
     93c:	93 e0       	ldi	r25, 0x03	; 3
     93e:	0e 94 83 02 	call	0x506	;  0x506
     942:	08 0f       	add	r16, r24
     944:	19 1f       	adc	r17, r25
     946:	0c 7f       	andi	r16, 0xFC	; 252
     948:	1f 93       	push	r17
     94a:	0f 93       	push	r16
     94c:	8c ec       	ldi	r24, 0xCC	; 204
     94e:	91 e0       	ldi	r25, 0x01	; 1
     950:	9f 93       	push	r25
     952:	8f 93       	push	r24
     954:	ce 01       	movw	r24, r28
     956:	01 96       	adiw	r24, 0x01	; 1
     958:	9f 93       	push	r25
     95a:	8f 93       	push	r24
     95c:	0e 94 e2 16 	call	0x2dc4	;  0x2dc4
     960:	0f 90       	pop	r0
     962:	0f 90       	pop	r0
     964:	0f 90       	pop	r0
     966:	0f 90       	pop	r0
     968:	0f 90       	pop	r0
     96a:	0f 90       	pop	r0
     96c:	c8 01       	movw	r24, r16
     96e:	08 c0       	rjmp	.+16     	;  0x980
     970:	61 e0       	ldi	r22, 0x01	; 1
     972:	70 e0       	ldi	r23, 0x00	; 0
     974:	80 e0       	ldi	r24, 0x00	; 0
     976:	90 e0       	ldi	r25, 0x00	; 0
     978:	0e 94 58 10 	call	0x20b0	;  0x20b0
     97c:	1f 5f       	subi	r17, 0xFF	; 255
     97e:	c9 cf       	rjmp	.-110    	;  0x912
     980:	64 96       	adiw	r28, 0x14	; 20
     982:	0f b6       	in	r0, 0x3f	; 63
     984:	f8 94       	cli
     986:	de bf       	out	0x3e, r29	; 62
     988:	0f be       	out	0x3f, r0	; 63
     98a:	cd bf       	out	0x3d, r28	; 61
     98c:	df 91       	pop	r29
     98e:	cf 91       	pop	r28
     990:	1f 91       	pop	r17
     992:	0f 91       	pop	r16
     994:	08 95       	ret
     996:	65 ee       	ldi	r22, 0xE5	; 229
     998:	0e 94 5e 04 	call	0x8bc	;  0x8bc
     99c:	bc 01       	movw	r22, r24
     99e:	80 e0       	ldi	r24, 0x00	; 0
     9a0:	90 e0       	ldi	r25, 0x00	; 0
     9a2:	0e 94 29 15 	call	0x2a52	;  0x2a52
     9a6:	20 e0       	ldi	r18, 0x00	; 0
     9a8:	30 e0       	ldi	r19, 0x00	; 0
     9aa:	4a ef       	ldi	r20, 0xFA	; 250
     9ac:	5a e3       	ldi	r21, 0x3A	; 58
     9ae:	0e 94 df 15 	call	0x2bbe	;  0x2bbe
     9b2:	20 e0       	ldi	r18, 0x00	; 0
     9b4:	30 e0       	ldi	r19, 0x00	; 0
     9b6:	40 ec       	ldi	r20, 0xC0	; 192
     9b8:	50 e4       	ldi	r21, 0x40	; 64
     9ba:	0e 94 27 14 	call	0x284e	;  0x284e
     9be:	08 95       	ret
     9c0:	63 ee       	ldi	r22, 0xE3	; 227
     9c2:	0e 94 5e 04 	call	0x8bc	;  0x8bc
     9c6:	bc 01       	movw	r22, r24
     9c8:	80 e0       	ldi	r24, 0x00	; 0
     9ca:	90 e0       	ldi	r25, 0x00	; 0
     9cc:	0e 94 29 15 	call	0x2a52	;  0x2a52
     9d0:	22 e5       	ldi	r18, 0x52	; 82
     9d2:	38 eb       	ldi	r19, 0xB8	; 184
     9d4:	4f e2       	ldi	r20, 0x2F	; 47
     9d6:	5b e3       	ldi	r21, 0x3B	; 59
     9d8:	0e 94 df 15 	call	0x2bbe	;  0x2bbe
     9dc:	26 e6       	ldi	r18, 0x66	; 102
     9de:	36 e6       	ldi	r19, 0x66	; 102
     9e0:	4b e3       	ldi	r20, 0x3B	; 59
     9e2:	52 e4       	ldi	r21, 0x42	; 66
     9e4:	0e 94 27 14 	call	0x284e	;  0x284e
     9e8:	08 95       	ret
     9ea:	8b e0       	ldi	r24, 0x0B	; 11
     9ec:	08 95       	ret
     9ee:	cf 93       	push	r28
     9f0:	dc 01       	movw	r26, r24
     9f2:	16 96       	adiw	r26, 0x06	; 6
     9f4:	cc 91       	ld	r28, X
     9f6:	16 97       	sbiw	r26, 0x06	; 6
     9f8:	ed 91       	ld	r30, X+
     9fa:	fc 91       	ld	r31, X
     9fc:	02 80       	ldd	r0, Z+2	; 0x02
     9fe:	f3 81       	ldd	r31, Z+3	; 0x03
     a00:	e0 2d       	mov	r30, r0
     a02:	09 95       	icall
     a04:	c1 50       	subi	r28, 0x01	; 1
     a06:	c8 1b       	sub	r28, r24
     a08:	8c 2f       	mov	r24, r28
     a0a:	cf 91       	pop	r28
     a0c:	08 95       	ret
     a0e:	fc 01       	movw	r30, r24
     a10:	86 81       	ldd	r24, Z+6	; 0x06
     a12:	84 5f       	subi	r24, 0xF4	; 244
     a14:	08 95       	ret
     a16:	fc 01       	movw	r30, r24
     a18:	80 85       	ldd	r24, Z+8	; 0x08
     a1a:	8e 5f       	subi	r24, 0xFE	; 254
     a1c:	08 95       	ret
     a1e:	fc 01       	movw	r30, r24
     a20:	61 11       	cpse	r22, r1
     a22:	04 c0       	rjmp	.+8      	;  0xa2c
     a24:	04 80       	ldd	r0, Z+4	; 0x04
     a26:	f5 81       	ldd	r31, Z+5	; 0x05
     a28:	e0 2d       	mov	r30, r0
     a2a:	0d c0       	rjmp	.+26     	;  0xa46
     a2c:	61 30       	cpi	r22, 0x01	; 1
     a2e:	29 f4       	brne	.+10     	;  0xa3a
     a30:	04 80       	ldd	r0, Z+4	; 0x04
     a32:	f5 81       	ldd	r31, Z+5	; 0x05
     a34:	e0 2d       	mov	r30, r0
     a36:	81 81       	ldd	r24, Z+1	; 0x01
     a38:	08 95       	ret
     a3a:	06 80       	ldd	r0, Z+6	; 0x06
     a3c:	f7 81       	ldd	r31, Z+7	; 0x07
     a3e:	e0 2d       	mov	r30, r0
     a40:	e6 0f       	add	r30, r22
     a42:	f1 1d       	adc	r31, r1
     a44:	32 97       	sbiw	r30, 0x02	; 2
     a46:	80 81       	ld	r24, Z
     a48:	08 95       	ret
     a4a:	fc 01       	movw	r30, r24
     a4c:	61 11       	cpse	r22, r1
     a4e:	02 c0       	rjmp	.+4      	;  0xa54
     a50:	82 85       	ldd	r24, Z+10	; 0x0a
     a52:	08 95       	ret
     a54:	61 30       	cpi	r22, 0x01	; 1
     a56:	11 f4       	brne	.+4      	;  0xa5c
     a58:	81 85       	ldd	r24, Z+9	; 0x09
     a5a:	08 95       	ret
     a5c:	62 30       	cpi	r22, 0x02	; 2
     a5e:	11 f4       	brne	.+4      	;  0xa64
     a60:	80 85       	ldd	r24, Z+8	; 0x08
     a62:	08 95       	ret
     a64:	63 30       	cpi	r22, 0x03	; 3
     a66:	11 f4       	brne	.+4      	;  0xa6c
     a68:	87 81       	ldd	r24, Z+7	; 0x07
     a6a:	08 95       	ret
     a6c:	64 30       	cpi	r22, 0x04	; 4
     a6e:	11 f4       	brne	.+4      	;  0xa74
     a70:	86 85       	ldd	r24, Z+14	; 0x0e
     a72:	08 95       	ret
     a74:	65 30       	cpi	r22, 0x05	; 5
     a76:	11 f4       	brne	.+4      	;  0xa7c
     a78:	85 85       	ldd	r24, Z+13	; 0x0d
     a7a:	08 95       	ret
     a7c:	66 30       	cpi	r22, 0x06	; 6
     a7e:	11 f4       	brne	.+4      	;  0xa84
     a80:	84 85       	ldd	r24, Z+12	; 0x0c
     a82:	08 95       	ret
     a84:	67 30       	cpi	r22, 0x07	; 7
     a86:	11 f4       	brne	.+4      	;  0xa8c
     a88:	83 85       	ldd	r24, Z+11	; 0x0b
     a8a:	08 95       	ret
     a8c:	68 30       	cpi	r22, 0x08	; 8
     a8e:	11 f4       	brne	.+4      	;  0xa94
     a90:	80 89       	ldd	r24, Z+16	; 0x10
     a92:	08 95       	ret
     a94:	69 30       	cpi	r22, 0x09	; 9
     a96:	11 f4       	brne	.+4      	;  0xa9c
     a98:	87 85       	ldd	r24, Z+15	; 0x0f
     a9a:	08 95       	ret
     a9c:	6a 30       	cpi	r22, 0x0A	; 10
     a9e:	11 f4       	brne	.+4      	;  0xaa4
     aa0:	81 89       	ldd	r24, Z+17	; 0x11
     aa2:	08 95       	ret
     aa4:	6b 30       	cpi	r22, 0x0B	; 11
     aa6:	11 f4       	brne	.+4      	;  0xaac
     aa8:	82 89       	ldd	r24, Z+18	; 0x12
     aaa:	08 95       	ret
     aac:	04 80       	ldd	r0, Z+4	; 0x04
     aae:	f5 81       	ldd	r31, Z+5	; 0x05
     ab0:	e0 2d       	mov	r30, r0
     ab2:	e6 0f       	add	r30, r22
     ab4:	f1 1d       	adc	r31, r1
     ab6:	3c 97       	sbiw	r30, 0x0c	; 12
     ab8:	80 81       	ld	r24, Z
     aba:	08 95       	ret
     abc:	fc 01       	movw	r30, r24
     abe:	82 81       	ldd	r24, Z+2	; 0x02
     ac0:	08 95       	ret
     ac2:	fc 01       	movw	r30, r24
     ac4:	87 81       	ldd	r24, Z+7	; 0x07
     ac6:	08 95       	ret
     ac8:	21 e0       	ldi	r18, 0x01	; 1
     aca:	fc 01       	movw	r30, r24
     acc:	80 85       	ldd	r24, Z+8	; 0x08
     ace:	81 11       	cpse	r24, r1
     ad0:	01 c0       	rjmp	.+2      	;  0xad4
     ad2:	20 e0       	ldi	r18, 0x00	; 0
     ad4:	82 2f       	mov	r24, r18
     ad6:	08 95       	ret
     ad8:	fc 01       	movw	r30, r24
     ada:	80 85       	ldd	r24, Z+8	; 0x08
     adc:	08 95       	ret
     ade:	fc 01       	movw	r30, r24
     ae0:	db 01       	movw	r26, r22
     ae2:	82 81       	ldd	r24, Z+2	; 0x02
     ae4:	12 96       	adiw	r26, 0x02	; 2
     ae6:	8c 93       	st	X, r24
     ae8:	12 97       	sbiw	r26, 0x02	; 2
     aea:	87 81       	ldd	r24, Z+7	; 0x07
     aec:	17 96       	adiw	r26, 0x07	; 7
     aee:	8c 93       	st	X, r24
     af0:	17 97       	sbiw	r26, 0x07	; 7
     af2:	85 81       	ldd	r24, Z+5	; 0x05
     af4:	15 96       	adiw	r26, 0x05	; 5
     af6:	8c 93       	st	X, r24
     af8:	15 97       	sbiw	r26, 0x05	; 5
     afa:	80 85       	ldd	r24, Z+8	; 0x08
     afc:	18 96       	adiw	r26, 0x08	; 8
     afe:	8c 93       	st	X, r24
     b00:	18 97       	sbiw	r26, 0x08	; 8
     b02:	86 81       	ldd	r24, Z+6	; 0x06
     b04:	16 96       	adiw	r26, 0x06	; 6
     b06:	8c 93       	st	X, r24
     b08:	16 97       	sbiw	r26, 0x06	; 6
     b0a:	83 81       	ldd	r24, Z+3	; 0x03
     b0c:	13 96       	adiw	r26, 0x03	; 3
     b0e:	8c 93       	st	X, r24
     b10:	13 97       	sbiw	r26, 0x03	; 3
     b12:	84 81       	ldd	r24, Z+4	; 0x04
     b14:	14 96       	adiw	r26, 0x04	; 4
     b16:	8c 93       	st	X, r24
     b18:	08 95       	ret
     b1a:	cf 93       	push	r28
     b1c:	df 93       	push	r29
     b1e:	cd b7       	in	r28, 0x3d	; 61
     b20:	de b7       	in	r29, 0x3e	; 62
     b22:	28 97       	sbiw	r28, 0x08	; 8
     b24:	0f b6       	in	r0, 0x3f	; 63
     b26:	f8 94       	cli
     b28:	de bf       	out	0x3e, r29	; 62
     b2a:	0f be       	out	0x3f, r0	; 63
     b2c:	cd bf       	out	0x3d, r28	; 61
     b2e:	20 e2       	ldi	r18, 0x20	; 32
     b30:	31 e0       	ldi	r19, 0x01	; 1
     b32:	fc 01       	movw	r30, r24
     b34:	31 83       	std	Z+1, r19	; 0x01
     b36:	20 83       	st	Z, r18
     b38:	28 e0       	ldi	r18, 0x08	; 8
     b3a:	fe 01       	movw	r30, r28
     b3c:	31 96       	adiw	r30, 0x01	; 1
     b3e:	dc 01       	movw	r26, r24
     b40:	1b 96       	adiw	r26, 0x0b	; 11
     b42:	01 90       	ld	r0, Z+
     b44:	0d 92       	st	X+, r0
     b46:	2a 95       	dec	r18
     b48:	e1 f7       	brne	.-8      	;  0xb42
     b4a:	28 96       	adiw	r28, 0x08	; 8
     b4c:	0f b6       	in	r0, 0x3f	; 63
     b4e:	f8 94       	cli
     b50:	de bf       	out	0x3e, r29	; 62
     b52:	0f be       	out	0x3f, r0	; 63
     b54:	cd bf       	out	0x3d, r28	; 61
     b56:	df 91       	pop	r29
     b58:	cf 91       	pop	r28
     b5a:	08 95       	ret
     b5c:	0f 93       	push	r16
     b5e:	1f 93       	push	r17
     b60:	cf 93       	push	r28
     b62:	df 93       	push	r29
     b64:	8c 01       	movw	r16, r24
     b66:	eb 01       	movw	r28, r22
     b68:	dc 01       	movw	r26, r24
     b6a:	8d 91       	ld	r24, X+
     b6c:	9c 91       	ld	r25, X
     b6e:	99 83       	std	Y+1, r25	; 0x01
     b70:	88 83       	st	Y, r24
     b72:	c8 01       	movw	r24, r16
     b74:	0e 94 6f 05 	call	0xade	;  0xade
     b78:	d8 01       	movw	r26, r16
     b7a:	ed 91       	ld	r30, X+
     b7c:	fc 91       	ld	r31, X
     b7e:	80 81       	ld	r24, Z
     b80:	90 e0       	ldi	r25, 0x00	; 0
     b82:	a0 e0       	ldi	r26, 0x00	; 0
     b84:	b0 e0       	ldi	r27, 0x00	; 0
     b86:	b8 2f       	mov	r27, r24
     b88:	aa 27       	eor	r26, r26
     b8a:	99 27       	eor	r25, r25
     b8c:	88 27       	eor	r24, r24
     b8e:	41 81       	ldd	r20, Z+1	; 0x01
     b90:	50 e0       	ldi	r21, 0x00	; 0
     b92:	60 e0       	ldi	r22, 0x00	; 0
     b94:	70 e0       	ldi	r23, 0x00	; 0
     b96:	ba 01       	movw	r22, r20
     b98:	55 27       	eor	r21, r21
     b9a:	44 27       	eor	r20, r20
     b9c:	84 0f       	add	r24, r20
     b9e:	95 1f       	adc	r25, r21
     ba0:	a6 1f       	adc	r26, r22
     ba2:	b7 1f       	adc	r27, r23
     ba4:	23 81       	ldd	r18, Z+3	; 0x03
     ba6:	82 0f       	add	r24, r18
     ba8:	91 1d       	adc	r25, r1
     baa:	a1 1d       	adc	r26, r1
     bac:	b1 1d       	adc	r27, r1
     bae:	22 81       	ldd	r18, Z+2	; 0x02
     bb0:	30 e0       	ldi	r19, 0x00	; 0
     bb2:	32 2f       	mov	r19, r18
     bb4:	22 27       	eor	r18, r18
     bb6:	82 0f       	add	r24, r18
     bb8:	93 1f       	adc	r25, r19
     bba:	a1 1d       	adc	r26, r1
     bbc:	b1 1d       	adc	r27, r1
     bbe:	89 87       	std	Y+9, r24	; 0x09
     bc0:	9a 87       	std	Y+10, r25	; 0x0a
     bc2:	ab 87       	std	Y+11, r26	; 0x0b
     bc4:	bc 87       	std	Y+12, r27	; 0x0c
     bc6:	84 81       	ldd	r24, Z+4	; 0x04
     bc8:	90 e0       	ldi	r25, 0x00	; 0
     bca:	a0 e0       	ldi	r26, 0x00	; 0
     bcc:	b0 e0       	ldi	r27, 0x00	; 0
     bce:	b8 2f       	mov	r27, r24
     bd0:	aa 27       	eor	r26, r26
     bd2:	99 27       	eor	r25, r25
     bd4:	88 27       	eor	r24, r24
     bd6:	45 81       	ldd	r20, Z+5	; 0x05
     bd8:	50 e0       	ldi	r21, 0x00	; 0
     bda:	60 e0       	ldi	r22, 0x00	; 0
     bdc:	70 e0       	ldi	r23, 0x00	; 0
     bde:	ba 01       	movw	r22, r20
     be0:	55 27       	eor	r21, r21
     be2:	44 27       	eor	r20, r20
     be4:	84 0f       	add	r24, r20
     be6:	95 1f       	adc	r25, r21
     be8:	a6 1f       	adc	r26, r22
     bea:	b7 1f       	adc	r27, r23
     bec:	27 81       	ldd	r18, Z+7	; 0x07
     bee:	82 0f       	add	r24, r18
     bf0:	91 1d       	adc	r25, r1
     bf2:	a1 1d       	adc	r26, r1
     bf4:	b1 1d       	adc	r27, r1
     bf6:	26 81       	ldd	r18, Z+6	; 0x06
     bf8:	30 e0       	ldi	r19, 0x00	; 0
     bfa:	32 2f       	mov	r19, r18
     bfc:	22 27       	eor	r18, r18
     bfe:	82 0f       	add	r24, r18
     c00:	93 1f       	adc	r25, r19
     c02:	a1 1d       	adc	r26, r1
     c04:	b1 1d       	adc	r27, r1
     c06:	8d 87       	std	Y+13, r24	; 0x0d
     c08:	9e 87       	std	Y+14, r25	; 0x0e
     c0a:	af 87       	std	Y+15, r26	; 0x0f
     c0c:	b8 8b       	std	Y+16, r27	; 0x10
     c0e:	df 91       	pop	r29
     c10:	cf 91       	pop	r28
     c12:	1f 91       	pop	r17
     c14:	0f 91       	pop	r16
     c16:	08 95       	ret
     c18:	cf 93       	push	r28
     c1a:	df 93       	push	r29
     c1c:	dc 01       	movw	r26, r24
     c1e:	12 96       	adiw	r26, 0x02	; 2
     c20:	cd 91       	ld	r28, X+
     c22:	dc 91       	ld	r29, X
     c24:	13 97       	sbiw	r26, 0x03	; 3
     c26:	ed 91       	ld	r30, X+
     c28:	fc 91       	ld	r31, X
     c2a:	02 80       	ldd	r0, Z+2	; 0x02
     c2c:	f3 81       	ldd	r31, Z+3	; 0x03
     c2e:	e0 2d       	mov	r30, r0
     c30:	09 95       	icall
     c32:	fe 01       	movw	r30, r28
     c34:	e8 0f       	add	r30, r24
     c36:	f1 1d       	adc	r31, r1
     c38:	cf 01       	movw	r24, r30
     c3a:	df 91       	pop	r29
     c3c:	cf 91       	pop	r28
     c3e:	08 95       	ret
     c40:	08 95       	ret
     c42:	dc 01       	movw	r26, r24
     c44:	ed 91       	ld	r30, X+
     c46:	fc 91       	ld	r31, X
     c48:	80 81       	ld	r24, Z
     c4a:	08 95       	ret
     c4c:	fc 01       	movw	r30, r24
     c4e:	20 81       	ld	r18, Z
     c50:	31 81       	ldd	r19, Z+1	; 0x01
     c52:	fb 01       	movw	r30, r22
     c54:	31 83       	std	Z+1, r19	; 0x01
     c56:	20 83       	st	Z, r18
     c58:	0c 94 6f 05 	jmp	0xade	;  0xade
     c5c:	08 95       	ret
     c5e:	fc 01       	movw	r30, r24
     c60:	86 81       	ldd	r24, Z+6	; 0x06
     c62:	84 50       	subi	r24, 0x04	; 4
     c64:	08 95       	ret
     c66:	fc 01       	movw	r30, r24
     c68:	26 81       	ldd	r18, Z+6	; 0x06
     c6a:	24 30       	cpi	r18, 0x04	; 4
     c6c:	21 f0       	breq	.+8      	;  0xc76
     c6e:	80 81       	ld	r24, Z
     c70:	91 81       	ldd	r25, Z+1	; 0x01
     c72:	04 96       	adiw	r24, 0x04	; 4
     c74:	08 95       	ret
     c76:	80 e0       	ldi	r24, 0x00	; 0
     c78:	90 e0       	ldi	r25, 0x00	; 0
     c7a:	08 95       	ret
     c7c:	dc 01       	movw	r26, r24
     c7e:	ed 91       	ld	r30, X+
     c80:	fc 91       	ld	r31, X
     c82:	81 e0       	ldi	r24, 0x01	; 1
     c84:	93 81       	ldd	r25, Z+3	; 0x03
     c86:	91 11       	cpse	r25, r1
     c88:	80 e0       	ldi	r24, 0x00	; 0
     c8a:	08 95       	ret
     c8c:	fc 01       	movw	r30, r24
     c8e:	20 81       	ld	r18, Z
     c90:	31 81       	ldd	r19, Z+1	; 0x01
     c92:	fb 01       	movw	r30, r22
     c94:	31 83       	std	Z+1, r19	; 0x01
     c96:	20 83       	st	Z, r18
     c98:	0c 94 6f 05 	jmp	0xade	;  0xade
     c9c:	fc 01       	movw	r30, r24
     c9e:	80 81       	ld	r24, Z
     ca0:	91 81       	ldd	r25, Z+1	; 0x01
     ca2:	08 95       	ret
     ca4:	fc 01       	movw	r30, r24
     ca6:	17 82       	std	Z+7, r1	; 0x07
     ca8:	10 86       	std	Z+8, r1	; 0x08
     caa:	15 82       	std	Z+5, r1	; 0x05
     cac:	12 82       	std	Z+2, r1	; 0x02
     cae:	13 82       	std	Z+3, r1	; 0x03
     cb0:	14 82       	std	Z+4, r1	; 0x04
     cb2:	26 81       	ldd	r18, Z+6	; 0x06
     cb4:	30 e0       	ldi	r19, 0x00	; 0
     cb6:	16 82       	std	Z+6, r1	; 0x06
     cb8:	80 e0       	ldi	r24, 0x00	; 0
     cba:	90 e0       	ldi	r25, 0x00	; 0
     cbc:	82 17       	cp	r24, r18
     cbe:	93 07       	cpc	r25, r19
     cc0:	3c f4       	brge	.+14     	;  0xcd0
     cc2:	a0 81       	ld	r26, Z
     cc4:	b1 81       	ldd	r27, Z+1	; 0x01
     cc6:	a8 0f       	add	r26, r24
     cc8:	b9 1f       	adc	r27, r25
     cca:	1c 92       	st	X, r1
     ccc:	01 96       	adiw	r24, 0x01	; 1
     cce:	f6 cf       	rjmp	.-20     	;  0xcbc
     cd0:	08 95       	ret
     cd2:	fc 01       	movw	r30, r24
     cd4:	12 86       	std	Z+10, r1	; 0x0a
     cd6:	11 86       	std	Z+9, r1	; 0x09
     cd8:	0c 94 52 06 	jmp	0xca4	;  0xca4
     cdc:	fc 01       	movw	r30, r24
     cde:	12 86       	std	Z+10, r1	; 0x0a
     ce0:	11 86       	std	Z+9, r1	; 0x09
     ce2:	14 86       	std	Z+12, r1	; 0x0c
     ce4:	15 86       	std	Z+13, r1	; 0x0d
     ce6:	17 82       	std	Z+7, r1	; 0x07
     ce8:	10 86       	std	Z+8, r1	; 0x08
     cea:	15 82       	std	Z+5, r1	; 0x05
     cec:	0e 96       	adiw	r24, 0x0e	; 14
     cee:	91 83       	std	Z+1, r25	; 0x01
     cf0:	80 83       	st	Z, r24
     cf2:	e2 5f       	subi	r30, 0xF2	; 242
     cf4:	fd 4f       	sbci	r31, 0xFD	; 253
     cf6:	86 e3       	ldi	r24, 0x36	; 54
     cf8:	97 e0       	ldi	r25, 0x07	; 7
     cfa:	91 83       	std	Z+1, r25	; 0x01
     cfc:	80 83       	st	Z, r24
     cfe:	08 95       	ret
     d00:	82 5f       	subi	r24, 0xF2	; 242
     d02:	9d 4f       	sbci	r25, 0xFD	; 253
     d04:	fc 01       	movw	r30, r24
     d06:	80 81       	ld	r24, Z
     d08:	91 81       	ldd	r25, Z+1	; 0x01
     d0a:	0c 94 79 12 	jmp	0x24f2	;  0x24f2
     d0e:	82 5f       	subi	r24, 0xF2	; 242
     d10:	9d 4f       	sbci	r25, 0xFD	; 253
     d12:	dc 01       	movw	r26, r24
     d14:	8d 91       	ld	r24, X+
     d16:	9c 91       	ld	r25, X
     d18:	dc 01       	movw	r26, r24
     d1a:	ed 91       	ld	r30, X+
     d1c:	fc 91       	ld	r31, X
     d1e:	04 80       	ldd	r0, Z+4	; 0x04
     d20:	f5 81       	ldd	r31, Z+5	; 0x05
     d22:	e0 2d       	mov	r30, r0
     d24:	09 95       	icall
     d26:	21 e0       	ldi	r18, 0x01	; 1
     d28:	89 2b       	or	r24, r25
     d2a:	09 f4       	brne	.+2      	;  0xd2e
     d2c:	20 e0       	ldi	r18, 0x00	; 0
     d2e:	82 2f       	mov	r24, r18
     d30:	08 95       	ret
     d32:	82 5f       	subi	r24, 0xF2	; 242
     d34:	9d 4f       	sbci	r25, 0xFD	; 253
     d36:	dc 01       	movw	r26, r24
     d38:	8d 91       	ld	r24, X+
     d3a:	9c 91       	ld	r25, X
     d3c:	dc 01       	movw	r26, r24
     d3e:	ed 91       	ld	r30, X+
     d40:	fc 91       	ld	r31, X
     d42:	06 80       	ldd	r0, Z+6	; 0x06
     d44:	f7 81       	ldd	r31, Z+7	; 0x07
     d46:	e0 2d       	mov	r30, r0
     d48:	09 95       	icall
     d4a:	08 95       	ret
     d4c:	82 5f       	subi	r24, 0xF2	; 242
     d4e:	9d 4f       	sbci	r25, 0xFD	; 253
     d50:	dc 01       	movw	r26, r24
     d52:	8d 91       	ld	r24, X+
     d54:	9c 91       	ld	r25, X
     d56:	dc 01       	movw	r26, r24
     d58:	ed 91       	ld	r30, X+
     d5a:	fc 91       	ld	r31, X
     d5c:	02 84       	ldd	r0, Z+10	; 0x0a
     d5e:	f3 85       	ldd	r31, Z+11	; 0x0b
     d60:	e0 2d       	mov	r30, r0
     d62:	09 94       	ijmp
     d64:	82 5f       	subi	r24, 0xF2	; 242
     d66:	9d 4f       	sbci	r25, 0xFD	; 253
     d68:	dc 01       	movw	r26, r24
     d6a:	8d 91       	ld	r24, X+
     d6c:	9c 91       	ld	r25, X
     d6e:	dc 01       	movw	r26, r24
     d70:	ed 91       	ld	r30, X+
     d72:	fc 91       	ld	r31, X
     d74:	01 90       	ld	r0, Z+
     d76:	f0 81       	ld	r31, Z
     d78:	e0 2d       	mov	r30, r0
     d7a:	09 94       	ijmp
     d7c:	08 95       	ret
     d7e:	df 92       	push	r13
     d80:	ef 92       	push	r14
     d82:	ff 92       	push	r15
     d84:	0f 93       	push	r16
     d86:	1f 93       	push	r17
     d88:	cf 93       	push	r28
     d8a:	df 93       	push	r29
     d8c:	ec 01       	movw	r28, r24
     d8e:	8f 81       	ldd	r24, Y+7	; 0x07
     d90:	81 11       	cpse	r24, r1
     d92:	03 c0       	rjmp	.+6      	;  0xd9a
     d94:	88 85       	ldd	r24, Y+8	; 0x08
     d96:	88 23       	and	r24, r24
     d98:	31 f0       	breq	.+12     	;  0xda6
     d9a:	ce 01       	movw	r24, r28
     d9c:	0e 94 69 06 	call	0xcd2	;  0xcd2
     da0:	1a 86       	std	Y+10, r1	; 0x0a
     da2:	19 86       	std	Y+9, r1	; 0x09
     da4:	1c 86       	std	Y+12, r1	; 0x0c
     da6:	52 e0       	ldi	r21, 0x02	; 2
     da8:	d5 2e       	mov	r13, r21
     daa:	01 e0       	ldi	r16, 0x01	; 1
     dac:	63 e0       	ldi	r22, 0x03	; 3
     dae:	e6 2e       	mov	r14, r22
     db0:	74 e0       	ldi	r23, 0x04	; 4
     db2:	f7 2e       	mov	r15, r23
     db4:	10 e2       	ldi	r17, 0x20	; 32
     db6:	ce 01       	movw	r24, r28
     db8:	0e 94 87 06 	call	0xd0e	;  0xd0e
     dbc:	88 23       	and	r24, r24
     dbe:	09 f4       	brne	.+2      	;  0xdc2
     dc0:	64 c0       	rjmp	.+200    	;  0xe8a
     dc2:	ce 01       	movw	r24, r28
     dc4:	0e 94 99 06 	call	0xd32	;  0xd32
     dc8:	8b 87       	std	Y+11, r24	; 0x0b
     dca:	9a 85       	ldd	r25, Y+10	; 0x0a
     dcc:	99 23       	and	r25, r25
     dce:	a1 f0       	breq	.+40     	;  0xdf8
     dd0:	8e 37       	cpi	r24, 0x7E	; 126
     dd2:	19 f4       	brne	.+6      	;  0xdda
     dd4:	83 e0       	ldi	r24, 0x03	; 3
     dd6:	88 87       	std	Y+8, r24	; 0x08
     dd8:	58 c0       	rjmp	.+176    	;  0xe8a
     dda:	8d 37       	cpi	r24, 0x7D	; 125
     ddc:	69 f4       	brne	.+26     	;  0xdf8
     dde:	ce 01       	movw	r24, r28
     de0:	0e 94 87 06 	call	0xd0e	;  0xd0e
     de4:	88 23       	and	r24, r24
     de6:	31 f0       	breq	.+12     	;  0xdf4
     de8:	ce 01       	movw	r24, r28
     dea:	0e 94 99 06 	call	0xd32	;  0xd32
     dee:	81 27       	eor	r24, r17
     df0:	8b 87       	std	Y+11, r24	; 0x0b
     df2:	02 c0       	rjmp	.+4      	;  0xdf8
     df4:	09 87       	std	Y+9, r16	; 0x09
     df6:	df cf       	rjmp	.-66     	;  0xdb6
     df8:	89 85       	ldd	r24, Y+9	; 0x09
     dfa:	88 23       	and	r24, r24
     dfc:	21 f0       	breq	.+8      	;  0xe06
     dfe:	8b 85       	ldd	r24, Y+11	; 0x0b
     e00:	81 27       	eor	r24, r17
     e02:	8b 87       	std	Y+11, r24	; 0x0b
     e04:	19 86       	std	Y+9, r1	; 0x09
     e06:	4a 85       	ldd	r20, Y+10	; 0x0a
     e08:	43 30       	cpi	r20, 0x03	; 3
     e0a:	20 f0       	brcs	.+8      	;  0xe14
     e0c:	8c 85       	ldd	r24, Y+12	; 0x0c
     e0e:	9b 85       	ldd	r25, Y+11	; 0x0b
     e10:	89 0f       	add	r24, r25
     e12:	8c 87       	std	Y+12, r24	; 0x0c
     e14:	41 30       	cpi	r20, 0x01	; 1
     e16:	71 f0       	breq	.+28     	;  0xe34
     e18:	40 f0       	brcs	.+16     	;  0xe2a
     e1a:	42 30       	cpi	r20, 0x02	; 2
     e1c:	79 f0       	breq	.+30     	;  0xe3c
     e1e:	43 30       	cpi	r20, 0x03	; 3
     e20:	89 f4       	brne	.+34     	;  0xe44
     e22:	8b 85       	ldd	r24, Y+11	; 0x0b
     e24:	8a 83       	std	Y+2, r24	; 0x02
     e26:	fa 86       	std	Y+10, r15	; 0x0a
     e28:	c6 cf       	rjmp	.-116    	;  0xdb6
     e2a:	8b 85       	ldd	r24, Y+11	; 0x0b
     e2c:	8e 37       	cpi	r24, 0x7E	; 126
     e2e:	19 f6       	brne	.-122    	;  0xdb6
     e30:	0a 87       	std	Y+10, r16	; 0x0a
     e32:	c1 cf       	rjmp	.-126    	;  0xdb6
     e34:	8b 85       	ldd	r24, Y+11	; 0x0b
     e36:	8b 83       	std	Y+3, r24	; 0x03
     e38:	da 86       	std	Y+10, r13	; 0x0a
     e3a:	bd cf       	rjmp	.-134    	;  0xdb6
     e3c:	8b 85       	ldd	r24, Y+11	; 0x0b
     e3e:	8c 83       	std	Y+4, r24	; 0x04
     e40:	ea 86       	std	Y+10, r14	; 0x0a
     e42:	b9 cf       	rjmp	.-142    	;  0xdb6
     e44:	24 2f       	mov	r18, r20
     e46:	30 e0       	ldi	r19, 0x00	; 0
     e48:	8c 81       	ldd	r24, Y+4	; 0x04
     e4a:	90 e0       	ldi	r25, 0x00	; 0
     e4c:	03 96       	adiw	r24, 0x03	; 3
     e4e:	28 17       	cp	r18, r24
     e50:	39 07       	cpc	r19, r25
     e52:	81 f4       	brne	.+32     	;  0xe74
     e54:	8c 85       	ldd	r24, Y+12	; 0x0c
     e56:	8f 3f       	cpi	r24, 0xFF	; 255
     e58:	31 f4       	brne	.+12     	;  0xe66
     e5a:	8b 85       	ldd	r24, Y+11	; 0x0b
     e5c:	8d 83       	std	Y+5, r24	; 0x05
     e5e:	81 e0       	ldi	r24, 0x01	; 1
     e60:	8f 83       	std	Y+7, r24	; 0x07
     e62:	18 86       	std	Y+8, r1	; 0x08
     e64:	02 c0       	rjmp	.+4      	;  0xe6a
     e66:	81 e0       	ldi	r24, 0x01	; 1
     e68:	88 87       	std	Y+8, r24	; 0x08
     e6a:	44 50       	subi	r20, 0x04	; 4
     e6c:	4e 83       	std	Y+6, r20	; 0x06
     e6e:	1a 86       	std	Y+10, r1	; 0x0a
     e70:	1c 86       	std	Y+12, r1	; 0x0c
     e72:	0b c0       	rjmp	.+22     	;  0xe8a
     e74:	8b 85       	ldd	r24, Y+11	; 0x0b
     e76:	e8 81       	ld	r30, Y
     e78:	f9 81       	ldd	r31, Y+1	; 0x01
     e7a:	e2 0f       	add	r30, r18
     e7c:	f3 1f       	adc	r31, r19
     e7e:	34 97       	sbiw	r30, 0x04	; 4
     e80:	80 83       	st	Z, r24
     e82:	8a 85       	ldd	r24, Y+10	; 0x0a
     e84:	8f 5f       	subi	r24, 0xFF	; 255
     e86:	8a 87       	std	Y+10, r24	; 0x0a
     e88:	96 cf       	rjmp	.-212    	;  0xdb6
     e8a:	df 91       	pop	r29
     e8c:	cf 91       	pop	r28
     e8e:	1f 91       	pop	r17
     e90:	0f 91       	pop	r16
     e92:	ff 90       	pop	r15
     e94:	ef 90       	pop	r14
     e96:	df 90       	pop	r13
     e98:	08 95       	ret
     e9a:	cf 92       	push	r12
     e9c:	df 92       	push	r13
     e9e:	ef 92       	push	r14
     ea0:	ff 92       	push	r15
     ea2:	0f 93       	push	r16
     ea4:	1f 93       	push	r17
     ea6:	cf 93       	push	r28
     ea8:	df 93       	push	r29
     eaa:	ec 01       	movw	r28, r24
     eac:	8b 01       	movw	r16, r22
     eae:	77 ff       	sbrs	r23, 7
     eb0:	02 c0       	rjmp	.+4      	;  0xeb6
     eb2:	80 e0       	ldi	r24, 0x00	; 0
     eb4:	15 c0       	rjmp	.+42     	;  0xee0
     eb6:	0e 94 4a 10 	call	0x2094	;  0x2094
     eba:	6b 01       	movw	r12, r22
     ebc:	7c 01       	movw	r14, r24
     ebe:	0e 94 4a 10 	call	0x2094	;  0x2094
     ec2:	6c 19       	sub	r22, r12
     ec4:	7d 09       	sbc	r23, r13
     ec6:	60 17       	cp	r22, r16
     ec8:	71 07       	cpc	r23, r17
     eca:	9c f7       	brge	.-26     	;  0xeb2
     ecc:	ce 01       	movw	r24, r28
     ece:	0e 94 bf 06 	call	0xd7e	;  0xd7e
     ed2:	8f 81       	ldd	r24, Y+7	; 0x07
     ed4:	81 11       	cpse	r24, r1
     ed6:	04 c0       	rjmp	.+8      	;  0xee0
     ed8:	88 85       	ldd	r24, Y+8	; 0x08
     eda:	88 23       	and	r24, r24
     edc:	81 f3       	breq	.-32     	;  0xebe
     ede:	e9 cf       	rjmp	.-46     	;  0xeb2
     ee0:	df 91       	pop	r29
     ee2:	cf 91       	pop	r28
     ee4:	1f 91       	pop	r17
     ee6:	0f 91       	pop	r16
     ee8:	ff 90       	pop	r15
     eea:	ef 90       	pop	r14
     eec:	df 90       	pop	r13
     eee:	cf 90       	pop	r12
     ef0:	08 95       	ret
     ef2:	fc 01       	movw	r30, r24
     ef4:	63 83       	std	Z+3, r22	; 0x03
     ef6:	08 95       	ret
     ef8:	0f 93       	push	r16
     efa:	1f 93       	push	r17
     efc:	fc 01       	movw	r30, r24
     efe:	40 83       	st	Z, r20
     f00:	51 83       	std	Z+1, r21	; 0x01
     f02:	62 83       	std	Z+2, r22	; 0x02
     f04:	73 83       	std	Z+3, r23	; 0x03
     f06:	04 83       	std	Z+4, r16	; 0x04
     f08:	15 83       	std	Z+5, r17	; 0x05
     f0a:	26 83       	std	Z+6, r18	; 0x06
     f0c:	37 83       	std	Z+7, r19	; 0x07
     f0e:	1f 91       	pop	r17
     f10:	0f 91       	pop	r16
     f12:	08 95       	ret
     f14:	cf 93       	push	r28
     f16:	df 93       	push	r29
     f18:	ec 01       	movw	r28, r24
     f1a:	80 e1       	ldi	r24, 0x10	; 16
     f1c:	8a 83       	std	Y+2, r24	; 0x02
     f1e:	81 e0       	ldi	r24, 0x01	; 1
     f20:	8b 83       	std	Y+3, r24	; 0x03
     f22:	5d 83       	std	Y+5, r21	; 0x05
     f24:	4c 83       	std	Y+4, r20	; 0x04
     f26:	2e 83       	std	Y+6, r18	; 0x06
     f28:	88 e2       	ldi	r24, 0x28	; 40
     f2a:	91 e0       	ldi	r25, 0x01	; 1
     f2c:	99 83       	std	Y+1, r25	; 0x01
     f2e:	88 83       	st	Y, r24
     f30:	88 e0       	ldi	r24, 0x08	; 8
     f32:	fb 01       	movw	r30, r22
     f34:	de 01       	movw	r26, r28
     f36:	17 96       	adiw	r26, 0x07	; 7
     f38:	01 90       	ld	r0, Z+
     f3a:	0d 92       	st	X+, r0
     f3c:	8a 95       	dec	r24
     f3e:	e1 f7       	brne	.-8      	;  0xf38
     f40:	8e ef       	ldi	r24, 0xFE	; 254
     f42:	9f ef       	ldi	r25, 0xFF	; 255
     f44:	98 8b       	std	Y+16, r25	; 0x10
     f46:	8f 87       	std	Y+15, r24	; 0x0f
     f48:	19 8a       	std	Y+17, r1	; 0x11
     f4a:	1a 8a       	std	Y+18, r1	; 0x12
     f4c:	df 91       	pop	r29
     f4e:	cf 91       	pop	r28
     f50:	08 95       	ret
     f52:	fc 01       	movw	r30, r24
     f54:	88 e0       	ldi	r24, 0x08	; 8
     f56:	82 83       	std	Z+2, r24	; 0x02
     f58:	81 e0       	ldi	r24, 0x01	; 1
     f5a:	83 83       	std	Z+3, r24	; 0x03
     f5c:	80 e3       	ldi	r24, 0x30	; 48
     f5e:	91 e0       	ldi	r25, 0x01	; 1
     f60:	91 83       	std	Z+1, r25	; 0x01
     f62:	80 83       	st	Z, r24
     f64:	15 82       	std	Z+5, r1	; 0x05
     f66:	14 82       	std	Z+4, r1	; 0x04
     f68:	17 82       	std	Z+7, r1	; 0x07
     f6a:	16 82       	std	Z+6, r1	; 0x06
     f6c:	10 86       	std	Z+8, r1	; 0x08
     f6e:	08 95       	ret
     f70:	fc 01       	movw	r30, r24
     f72:	75 83       	std	Z+5, r23	; 0x05
     f74:	64 83       	std	Z+4, r22	; 0x04
     f76:	08 95       	ret
     f78:	1f 93       	push	r17
     f7a:	cf 93       	push	r28
     f7c:	df 93       	push	r29
     f7e:	ec 01       	movw	r28, r24
     f80:	16 2f       	mov	r17, r22
     f82:	44 23       	and	r20, r20
     f84:	79 f0       	breq	.+30     	;  0xfa4
     f86:	83 e8       	ldi	r24, 0x83	; 131
     f88:	86 0f       	add	r24, r22
     f8a:	82 30       	cpi	r24, 0x02	; 2
     f8c:	20 f0       	brcs	.+8      	;  0xf96
     f8e:	86 2f       	mov	r24, r22
     f90:	8d 7f       	andi	r24, 0xFD	; 253
     f92:	81 31       	cpi	r24, 0x11	; 17
     f94:	39 f4       	brne	.+14     	;  0xfa4
     f96:	6d e7       	ldi	r22, 0x7D	; 125
     f98:	ce 01       	movw	r24, r28
     f9a:	0e 94 b2 06 	call	0xd64	;  0xd64
     f9e:	60 e2       	ldi	r22, 0x20	; 32
     fa0:	61 27       	eor	r22, r17
     fa2:	01 c0       	rjmp	.+2      	;  0xfa6
     fa4:	61 2f       	mov	r22, r17
     fa6:	ce 01       	movw	r24, r28
     fa8:	df 91       	pop	r29
     faa:	cf 91       	pop	r28
     fac:	1f 91       	pop	r17
     fae:	0c 94 b2 06 	jmp	0xd64	;  0xd64
     fb2:	df 92       	push	r13
     fb4:	ef 92       	push	r14
     fb6:	ff 92       	push	r15
     fb8:	0f 93       	push	r16
     fba:	1f 93       	push	r17
     fbc:	cf 93       	push	r28
     fbe:	df 93       	push	r29
     fc0:	8c 01       	movw	r16, r24
     fc2:	eb 01       	movw	r28, r22
     fc4:	6e e7       	ldi	r22, 0x7E	; 126
     fc6:	0e 94 b2 06 	call	0xd64	;  0xd64
     fca:	e8 81       	ld	r30, Y
     fcc:	f9 81       	ldd	r31, Y+1	; 0x01
     fce:	02 80       	ldd	r0, Z+2	; 0x02
     fd0:	f3 81       	ldd	r31, Z+3	; 0x03
     fd2:	e0 2d       	mov	r30, r0
     fd4:	ce 01       	movw	r24, r28
     fd6:	09 95       	icall
     fd8:	e8 2e       	mov	r14, r24
     fda:	e8 81       	ld	r30, Y
     fdc:	f9 81       	ldd	r31, Y+1	; 0x01
     fde:	02 80       	ldd	r0, Z+2	; 0x02
     fe0:	f3 81       	ldd	r31, Z+3	; 0x03
     fe2:	e0 2d       	mov	r30, r0
     fe4:	ce 01       	movw	r24, r28
     fe6:	09 95       	icall
     fe8:	f8 2e       	mov	r15, r24
     fea:	2e 2d       	mov	r18, r14
     fec:	30 e0       	ldi	r19, 0x00	; 0
     fee:	2e 5f       	subi	r18, 0xFE	; 254
     ff0:	3f 4f       	sbci	r19, 0xFF	; 255
     ff2:	41 e0       	ldi	r20, 0x01	; 1
     ff4:	63 2f       	mov	r22, r19
     ff6:	c8 01       	movw	r24, r16
     ff8:	0e 94 bc 07 	call	0xf78	;  0xf78
     ffc:	62 e0       	ldi	r22, 0x02	; 2
     ffe:	6f 0d       	add	r22, r15
    1000:	41 e0       	ldi	r20, 0x01	; 1
    1002:	c8 01       	movw	r24, r16
    1004:	0e 94 bc 07 	call	0xf78	;  0xf78
    1008:	41 e0       	ldi	r20, 0x01	; 1
    100a:	6a 81       	ldd	r22, Y+2	; 0x02
    100c:	c8 01       	movw	r24, r16
    100e:	0e 94 bc 07 	call	0xf78	;  0xf78
    1012:	41 e0       	ldi	r20, 0x01	; 1
    1014:	6b 81       	ldd	r22, Y+3	; 0x03
    1016:	c8 01       	movw	r24, r16
    1018:	0e 94 bc 07 	call	0xf78	;  0xf78
    101c:	da 80       	ldd	r13, Y+2	; 0x02
    101e:	8b 81       	ldd	r24, Y+3	; 0x03
    1020:	d8 0e       	add	r13, r24
    1022:	e1 2c       	mov	r14, r1
    1024:	f1 2c       	mov	r15, r1
    1026:	e8 81       	ld	r30, Y
    1028:	f9 81       	ldd	r31, Y+1	; 0x01
    102a:	02 80       	ldd	r0, Z+2	; 0x02
    102c:	f3 81       	ldd	r31, Z+3	; 0x03
    102e:	e0 2d       	mov	r30, r0
    1030:	ce 01       	movw	r24, r28
    1032:	09 95       	icall
    1034:	28 2f       	mov	r18, r24
    1036:	30 e0       	ldi	r19, 0x00	; 0
    1038:	e2 16       	cp	r14, r18
    103a:	f3 06       	cpc	r15, r19
    103c:	d4 f4       	brge	.+52     	;  0x1072
    103e:	e8 81       	ld	r30, Y
    1040:	f9 81       	ldd	r31, Y+1	; 0x01
    1042:	01 90       	ld	r0, Z+
    1044:	f0 81       	ld	r31, Z
    1046:	e0 2d       	mov	r30, r0
    1048:	6e 2d       	mov	r22, r14
    104a:	ce 01       	movw	r24, r28
    104c:	09 95       	icall
    104e:	41 e0       	ldi	r20, 0x01	; 1
    1050:	68 2f       	mov	r22, r24
    1052:	c8 01       	movw	r24, r16
    1054:	0e 94 bc 07 	call	0xf78	;  0xf78
    1058:	e8 81       	ld	r30, Y
    105a:	f9 81       	ldd	r31, Y+1	; 0x01
    105c:	01 90       	ld	r0, Z+
    105e:	f0 81       	ld	r31, Z
    1060:	e0 2d       	mov	r30, r0
    1062:	6e 2d       	mov	r22, r14
    1064:	ce 01       	movw	r24, r28
    1066:	09 95       	icall
    1068:	d8 0e       	add	r13, r24
    106a:	8f ef       	ldi	r24, 0xFF	; 255
    106c:	e8 1a       	sub	r14, r24
    106e:	f8 0a       	sbc	r15, r24
    1070:	da cf       	rjmp	.-76     	;  0x1026
    1072:	6d 2d       	mov	r22, r13
    1074:	60 95       	com	r22
    1076:	41 e0       	ldi	r20, 0x01	; 1
    1078:	c8 01       	movw	r24, r16
    107a:	0e 94 bc 07 	call	0xf78	;  0xf78
    107e:	c8 01       	movw	r24, r16
    1080:	df 91       	pop	r29
    1082:	cf 91       	pop	r28
    1084:	1f 91       	pop	r17
    1086:	0f 91       	pop	r16
    1088:	ff 90       	pop	r15
    108a:	ef 90       	pop	r14
    108c:	df 90       	pop	r13
    108e:	0c 94 a6 06 	jmp	0xd4c	;  0xd4c
    1092:	10 92 5c 03 	sts	0x035C, r1
    1096:	10 92 5d 03 	sts	0x035D, r1
    109a:	10 92 5e 03 	sts	0x035E, r1
    109e:	10 92 5f 03 	sts	0x035F, r1
    10a2:	8f ef       	ldi	r24, 0xFF	; 255
    10a4:	9f ef       	ldi	r25, 0xFF	; 255
    10a6:	a0 e0       	ldi	r26, 0x00	; 0
    10a8:	b0 e0       	ldi	r27, 0x00	; 0
    10aa:	80 93 60 03 	sts	0x0360, r24
    10ae:	90 93 61 03 	sts	0x0361, r25
    10b2:	a0 93 62 03 	sts	0x0362, r26
    10b6:	b0 93 63 03 	sts	0x0363, r27
    10ba:	08 95       	ret
    10bc:	cf 93       	push	r28
    10be:	df 93       	push	r29
    10c0:	ec 01       	movw	r28, r24
    10c2:	60 ef       	ldi	r22, 0xF0	; 240
    10c4:	71 e0       	ldi	r23, 0x01	; 1
    10c6:	8f 5a       	subi	r24, 0xAF	; 175
    10c8:	9f 4f       	sbci	r25, 0xFF	; 255
    10ca:	0e 94 97 16 	call	0x2d2e	;  0x2d2e
    10ce:	60 ef       	ldi	r22, 0xF0	; 240
    10d0:	71 e0       	ldi	r23, 0x01	; 1
    10d2:	ce 01       	movw	r24, r28
    10d4:	01 96       	adiw	r24, 0x01	; 1
    10d6:	df 91       	pop	r29
    10d8:	cf 91       	pop	r28
    10da:	0c 94 97 16 	jmp	0x2d2e	;  0x2d2e
    10de:	cf 93       	push	r28
    10e0:	df 93       	push	r29
    10e2:	ec 01       	movw	r28, r24
    10e4:	60 e0       	ldi	r22, 0x00	; 0
    10e6:	8b e0       	ldi	r24, 0x0B	; 11
    10e8:	0e 94 1b 11 	call	0x2236	;  0x2236
    10ec:	60 e0       	ldi	r22, 0x00	; 0
    10ee:	89 e0       	ldi	r24, 0x09	; 9
    10f0:	0e 94 1b 11 	call	0x2236	;  0x2236
    10f4:	60 e0       	ldi	r22, 0x00	; 0
    10f6:	8a e0       	ldi	r24, 0x0A	; 10
    10f8:	0e 94 1b 11 	call	0x2236	;  0x2236
    10fc:	60 e0       	ldi	r22, 0x00	; 0
    10fe:	8b e0       	ldi	r24, 0x0B	; 11
    1100:	0e 94 41 11 	call	0x2282	;  0x2282
    1104:	60 e0       	ldi	r22, 0x00	; 0
    1106:	89 e0       	ldi	r24, 0x09	; 9
    1108:	0e 94 41 11 	call	0x2282	;  0x2282
    110c:	60 e0       	ldi	r22, 0x00	; 0
    110e:	8a e0       	ldi	r24, 0x0A	; 10
    1110:	0e 94 41 11 	call	0x2282	;  0x2282
    1114:	18 82       	st	Y, r1
    1116:	df 91       	pop	r29
    1118:	cf 91       	pop	r28
    111a:	08 95       	ret
    111c:	fc 01       	movw	r30, r24
    111e:	80 81       	ld	r24, Z
    1120:	08 95       	ret
    1122:	df 92       	push	r13
    1124:	ef 92       	push	r14
    1126:	ff 92       	push	r15
    1128:	0f 93       	push	r16
    112a:	1f 93       	push	r17
    112c:	cf 93       	push	r28
    112e:	df 93       	push	r29
    1130:	7b 01       	movw	r14, r22
    1132:	d4 2e       	mov	r13, r20
    1134:	61 e0       	ldi	r22, 0x01	; 1
    1136:	8a e0       	ldi	r24, 0x0A	; 10
    1138:	0e 94 41 11 	call	0x2282	;  0x2282
    113c:	01 e0       	ldi	r16, 0x01	; 1
    113e:	10 e0       	ldi	r17, 0x00	; 0
    1140:	dd 20       	and	r13, r13
    1142:	e9 f0       	breq	.+58     	;  0x117e
    1144:	cf ef       	ldi	r28, 0xFF	; 255
    1146:	cd 0d       	add	r28, r13
    1148:	c8 01       	movw	r24, r16
    114a:	02 c0       	rjmp	.+4      	;  0x1150
    114c:	88 0f       	add	r24, r24
    114e:	99 1f       	adc	r25, r25
    1150:	ca 95       	dec	r28
    1152:	e2 f7       	brpl	.-8      	;  0x114c
    1154:	ec 01       	movw	r28, r24
    1156:	ce 21       	and	r28, r14
    1158:	df 21       	and	r29, r15
    115a:	60 e0       	ldi	r22, 0x00	; 0
    115c:	8a e0       	ldi	r24, 0x0A	; 10
    115e:	0e 94 41 11 	call	0x2282	;  0x2282
    1162:	cd 2b       	or	r28, r29
    1164:	11 f0       	breq	.+4      	;  0x116a
    1166:	61 e0       	ldi	r22, 0x01	; 1
    1168:	01 c0       	rjmp	.+2      	;  0x116c
    116a:	60 e0       	ldi	r22, 0x00	; 0
    116c:	8b e0       	ldi	r24, 0x0B	; 11
    116e:	0e 94 41 11 	call	0x2282	;  0x2282
    1172:	61 e0       	ldi	r22, 0x01	; 1
    1174:	8a e0       	ldi	r24, 0x0A	; 10
    1176:	0e 94 41 11 	call	0x2282	;  0x2282
    117a:	da 94       	dec	r13
    117c:	e1 cf       	rjmp	.-62     	;  0x1140
    117e:	df 91       	pop	r29
    1180:	cf 91       	pop	r28
    1182:	1f 91       	pop	r17
    1184:	0f 91       	pop	r16
    1186:	ff 90       	pop	r15
    1188:	ef 90       	pop	r14
    118a:	df 90       	pop	r13
    118c:	08 95       	ret
    118e:	cf 93       	push	r28
    1190:	df 93       	push	r29
    1192:	ec 01       	movw	r28, r24
    1194:	60 e0       	ldi	r22, 0x00	; 0
    1196:	89 e0       	ldi	r24, 0x09	; 9
    1198:	0e 94 41 11 	call	0x2282	;  0x2282
    119c:	82 e0       	ldi	r24, 0x02	; 2
    119e:	8a 95       	dec	r24
    11a0:	f1 f7       	brne	.-4      	;  0x119e
    11a2:	4a e0       	ldi	r20, 0x0A	; 10
    11a4:	61 e0       	ldi	r22, 0x01	; 1
    11a6:	70 e0       	ldi	r23, 0x00	; 0
    11a8:	ce 01       	movw	r24, r28
    11aa:	0e 94 91 08 	call	0x1122	;  0x1122
    11ae:	80 ea       	ldi	r24, 0xA0	; 160
    11b0:	9f e0       	ldi	r25, 0x0F	; 15
    11b2:	01 97       	sbiw	r24, 0x01	; 1
    11b4:	f1 f7       	brne	.-4      	;  0x11b2
    11b6:	61 e0       	ldi	r22, 0x01	; 1
    11b8:	89 e0       	ldi	r24, 0x09	; 9
    11ba:	0e 94 41 11 	call	0x2282	;  0x2282
    11be:	82 e0       	ldi	r24, 0x02	; 2
    11c0:	8a 95       	dec	r24
    11c2:	f1 f7       	brne	.-4      	;  0x11c0
    11c4:	df 91       	pop	r29
    11c6:	cf 91       	pop	r28
    11c8:	08 95       	ret
    11ca:	ef 92       	push	r14
    11cc:	ff 92       	push	r15
    11ce:	0f 93       	push	r16
    11d0:	1f 93       	push	r17
    11d2:	cf 93       	push	r28
    11d4:	df 93       	push	r29
    11d6:	7c 01       	movw	r14, r24
    11d8:	8b 01       	movw	r16, r22
    11da:	42 30       	cpi	r20, 0x02	; 2
    11dc:	91 f0       	breq	.+36     	;  0x1202
    11de:	30 f4       	brcc	.+12     	;  0x11ec
    11e0:	41 30       	cpi	r20, 0x01	; 1
    11e2:	09 f0       	breq	.+2      	;  0x11e6
    11e4:	49 c0       	rjmp	.+146    	;  0x1278
    11e6:	c0 e0       	ldi	r28, 0x00	; 0
    11e8:	d0 e0       	ldi	r29, 0x00	; 0
    11ea:	0d c0       	rjmp	.+26     	;  0x1206
    11ec:	43 30       	cpi	r20, 0x03	; 3
    11ee:	31 f0       	breq	.+12     	;  0x11fc
    11f0:	44 30       	cpi	r20, 0x04	; 4
    11f2:	09 f0       	breq	.+2      	;  0x11f6
    11f4:	41 c0       	rjmp	.+130    	;  0x1278
    11f6:	c4 e5       	ldi	r28, 0x54	; 84
    11f8:	d0 e0       	ldi	r29, 0x00	; 0
    11fa:	05 c0       	rjmp	.+10     	;  0x1206
    11fc:	c4 e1       	ldi	r28, 0x14	; 20
    11fe:	d0 e0       	ldi	r29, 0x00	; 0
    1200:	02 c0       	rjmp	.+4      	;  0x1206
    1202:	c0 e4       	ldi	r28, 0x40	; 64
    1204:	d0 e0       	ldi	r29, 0x00	; 0
    1206:	60 e0       	ldi	r22, 0x00	; 0
    1208:	89 e0       	ldi	r24, 0x09	; 9
    120a:	0e 94 41 11 	call	0x2282	;  0x2282
    120e:	be 01       	movw	r22, r28
    1210:	60 68       	ori	r22, 0x80	; 128
    1212:	4a e0       	ldi	r20, 0x0A	; 10
    1214:	c7 01       	movw	r24, r14
    1216:	0e 94 91 08 	call	0x1122	;  0x1122
    121a:	61 e0       	ldi	r22, 0x01	; 1
    121c:	89 e0       	ldi	r24, 0x09	; 9
    121e:	0e 94 41 11 	call	0x2282	;  0x2282
    1222:	60 e0       	ldi	r22, 0x00	; 0
    1224:	89 e0       	ldi	r24, 0x09	; 9
    1226:	0e 94 41 11 	call	0x2282	;  0x2282
    122a:	c0 e0       	ldi	r28, 0x00	; 0
    122c:	8c 2f       	mov	r24, r28
    122e:	90 e0       	ldi	r25, 0x00	; 0
    1230:	f8 01       	movw	r30, r16
    1232:	01 90       	ld	r0, Z+
    1234:	00 20       	and	r0, r0
    1236:	e9 f7       	brne	.-6      	;  0x1232
    1238:	31 97       	sbiw	r30, 0x01	; 1
    123a:	e0 1b       	sub	r30, r16
    123c:	f1 0b       	sbc	r31, r17
    123e:	8e 17       	cp	r24, r30
    1240:	9f 07       	cpc	r25, r31
    1242:	80 f4       	brcc	.+32     	;  0x1264
    1244:	f8 01       	movw	r30, r16
    1246:	e8 0f       	add	r30, r24
    1248:	f9 1f       	adc	r31, r25
    124a:	60 81       	ld	r22, Z
    124c:	70 e0       	ldi	r23, 0x00	; 0
    124e:	c1 11       	cpse	r28, r1
    1250:	03 c0       	rjmp	.+6      	;  0x1258
    1252:	72 60       	ori	r23, 0x02	; 2
    1254:	4a e0       	ldi	r20, 0x0A	; 10
    1256:	01 c0       	rjmp	.+2      	;  0x125a
    1258:	48 e0       	ldi	r20, 0x08	; 8
    125a:	c7 01       	movw	r24, r14
    125c:	0e 94 91 08 	call	0x1122	;  0x1122
    1260:	cf 5f       	subi	r28, 0xFF	; 255
    1262:	e4 cf       	rjmp	.-56     	;  0x122c
    1264:	61 e0       	ldi	r22, 0x01	; 1
    1266:	89 e0       	ldi	r24, 0x09	; 9
    1268:	df 91       	pop	r29
    126a:	cf 91       	pop	r28
    126c:	1f 91       	pop	r17
    126e:	0f 91       	pop	r16
    1270:	ff 90       	pop	r15
    1272:	ef 90       	pop	r14
    1274:	0c 94 41 11 	jmp	0x2282	;  0x2282
    1278:	df 91       	pop	r29
    127a:	cf 91       	pop	r28
    127c:	1f 91       	pop	r17
    127e:	0f 91       	pop	r16
    1280:	ff 90       	pop	r15
    1282:	ef 90       	pop	r14
    1284:	08 95       	ret
    1286:	0f 93       	push	r16
    1288:	1f 93       	push	r17
    128a:	cf 93       	push	r28
    128c:	df 93       	push	r29
    128e:	00 d0       	rcall	.+0      	;  0x1290
    1290:	cd b7       	in	r28, 0x3d	; 61
    1292:	de b7       	in	r29, 0x3e	; 62
    1294:	8c 01       	movw	r16, r24
    1296:	fc 01       	movw	r30, r24
    1298:	80 81       	ld	r24, Z
    129a:	88 23       	and	r24, r24
    129c:	d1 f1       	breq	.+116    	;  0x1312
    129e:	84 e6       	ldi	r24, 0x64	; 100
    12a0:	93 e0       	ldi	r25, 0x03	; 3
    12a2:	69 83       	std	Y+1, r22	; 0x01
    12a4:	7a 83       	std	Y+2, r23	; 0x02
    12a6:	0e 94 c7 08 	call	0x118e	;  0x118e
    12aa:	84 e6       	ldi	r24, 0x64	; 100
    12ac:	93 e0       	ldi	r25, 0x03	; 3
    12ae:	0e 94 c7 08 	call	0x118e	;  0x118e
    12b2:	0f 5a       	subi	r16, 0xAF	; 175
    12b4:	1f 4f       	sbci	r17, 0xFF	; 255
    12b6:	69 81       	ldd	r22, Y+1	; 0x01
    12b8:	7a 81       	ldd	r23, Y+2	; 0x02
    12ba:	c8 01       	movw	r24, r16
    12bc:	0e 94 97 16 	call	0x2d2e	;  0x2d2e
    12c0:	64 e3       	ldi	r22, 0x34	; 52
    12c2:	71 e0       	ldi	r23, 0x01	; 1
    12c4:	c8 01       	movw	r24, r16
    12c6:	0e 94 92 16 	call	0x2d24	;  0x2d24
    12ca:	41 e0       	ldi	r20, 0x01	; 1
    12cc:	00 97       	sbiw	r24, 0x00	; 0
    12ce:	a9 f0       	breq	.+42     	;  0x12fa
    12d0:	11 e0       	ldi	r17, 0x01	; 1
    12d2:	14 0f       	add	r17, r20
    12d4:	bc 01       	movw	r22, r24
    12d6:	84 e6       	ldi	r24, 0x64	; 100
    12d8:	93 e0       	ldi	r25, 0x03	; 3
    12da:	0e 94 e5 08 	call	0x11ca	;  0x11ca
    12de:	62 e3       	ldi	r22, 0x32	; 50
    12e0:	70 e0       	ldi	r23, 0x00	; 0
    12e2:	80 e0       	ldi	r24, 0x00	; 0
    12e4:	90 e0       	ldi	r25, 0x00	; 0
    12e6:	0e 94 58 10 	call	0x20b0	;  0x20b0
    12ea:	64 e3       	ldi	r22, 0x34	; 52
    12ec:	71 e0       	ldi	r23, 0x01	; 1
    12ee:	80 e0       	ldi	r24, 0x00	; 0
    12f0:	90 e0       	ldi	r25, 0x00	; 0
    12f2:	0e 94 92 16 	call	0x2d24	;  0x2d24
    12f6:	41 2f       	mov	r20, r17
    12f8:	e9 cf       	rjmp	.-46     	;  0x12cc
    12fa:	68 ec       	ldi	r22, 0xC8	; 200
    12fc:	70 e0       	ldi	r23, 0x00	; 0
    12fe:	80 e0       	ldi	r24, 0x00	; 0
    1300:	90 e0       	ldi	r25, 0x00	; 0
    1302:	0f 90       	pop	r0
    1304:	0f 90       	pop	r0
    1306:	df 91       	pop	r29
    1308:	cf 91       	pop	r28
    130a:	1f 91       	pop	r17
    130c:	0f 91       	pop	r16
    130e:	0c 94 58 10 	jmp	0x20b0	;  0x20b0
    1312:	0f 90       	pop	r0
    1314:	0f 90       	pop	r0
    1316:	df 91       	pop	r29
    1318:	cf 91       	pop	r28
    131a:	1f 91       	pop	r17
    131c:	0f 91       	pop	r16
    131e:	08 95       	ret
    1320:	0f 93       	push	r16
    1322:	1f 93       	push	r17
    1324:	cf 93       	push	r28
    1326:	df 93       	push	r29
    1328:	ec 01       	movw	r28, r24
    132a:	8c 01       	movw	r16, r24
    132c:	0f 5f       	subi	r16, 0xFF	; 255
    132e:	1f 4f       	sbci	r17, 0xFF	; 255
    1330:	c8 01       	movw	r24, r16
    1332:	0e 94 97 16 	call	0x2d2e	;  0x2d2e
    1336:	b8 01       	movw	r22, r16
    1338:	ce 01       	movw	r24, r28
    133a:	df 91       	pop	r29
    133c:	cf 91       	pop	r28
    133e:	1f 91       	pop	r17
    1340:	0f 91       	pop	r16
    1342:	0c 94 43 09 	jmp	0x1286	;  0x1286
    1346:	cf 93       	push	r28
    1348:	df 93       	push	r29
    134a:	ec 01       	movw	r28, r24
    134c:	8c e1       	ldi	r24, 0x1C	; 28
    134e:	8c bd       	out	0x2c, r24	; 44
    1350:	60 e0       	ldi	r22, 0x00	; 0
    1352:	8b e0       	ldi	r24, 0x0B	; 11
    1354:	0e 94 41 11 	call	0x2282	;  0x2282
    1358:	60 e0       	ldi	r22, 0x00	; 0
    135a:	89 e0       	ldi	r24, 0x09	; 9
    135c:	0e 94 41 11 	call	0x2282	;  0x2282
    1360:	60 e0       	ldi	r22, 0x00	; 0
    1362:	8a e0       	ldi	r24, 0x0A	; 10
    1364:	0e 94 41 11 	call	0x2282	;  0x2282
    1368:	60 e0       	ldi	r22, 0x00	; 0
    136a:	8c e0       	ldi	r24, 0x0C	; 12
    136c:	0e 94 41 11 	call	0x2282	;  0x2282
    1370:	61 e0       	ldi	r22, 0x01	; 1
    1372:	8b e0       	ldi	r24, 0x0B	; 11
    1374:	0e 94 1b 11 	call	0x2236	;  0x2236
    1378:	61 e0       	ldi	r22, 0x01	; 1
    137a:	89 e0       	ldi	r24, 0x09	; 9
    137c:	0e 94 1b 11 	call	0x2236	;  0x2236
    1380:	61 e0       	ldi	r22, 0x01	; 1
    1382:	8a e0       	ldi	r24, 0x0A	; 10
    1384:	0e 94 1b 11 	call	0x2236	;  0x2236
    1388:	60 e0       	ldi	r22, 0x00	; 0
    138a:	8c e0       	ldi	r24, 0x0C	; 12
    138c:	0e 94 1b 11 	call	0x2236	;  0x2236
    1390:	60 e0       	ldi	r22, 0x00	; 0
    1392:	8c e0       	ldi	r24, 0x0C	; 12
    1394:	0e 94 41 11 	call	0x2282	;  0x2282
    1398:	61 e0       	ldi	r22, 0x01	; 1
    139a:	89 e0       	ldi	r24, 0x09	; 9
    139c:	0e 94 41 11 	call	0x2282	;  0x2282
    13a0:	61 e0       	ldi	r22, 0x01	; 1
    13a2:	8a e0       	ldi	r24, 0x0A	; 10
    13a4:	0e 94 41 11 	call	0x2282	;  0x2282
    13a8:	80 ea       	ldi	r24, 0xA0	; 160
    13aa:	9f e0       	ldi	r25, 0x0F	; 15
    13ac:	01 97       	sbiw	r24, 0x01	; 1
    13ae:	f1 f7       	brne	.-4      	;  0x13ac
    13b0:	60 e0       	ldi	r22, 0x00	; 0
    13b2:	89 e0       	ldi	r24, 0x09	; 9
    13b4:	0e 94 41 11 	call	0x2282	;  0x2282
    13b8:	82 e0       	ldi	r24, 0x02	; 2
    13ba:	8a 95       	dec	r24
    13bc:	f1 f7       	brne	.-4      	;  0x13ba
    13be:	4a e0       	ldi	r20, 0x0A	; 10
    13c0:	68 e3       	ldi	r22, 0x38	; 56
    13c2:	70 e0       	ldi	r23, 0x00	; 0
    13c4:	ce 01       	movw	r24, r28
    13c6:	0e 94 91 08 	call	0x1122	;  0x1122
    13ca:	80 eb       	ldi	r24, 0xB0	; 176
    13cc:	94 e0       	ldi	r25, 0x04	; 4
    13ce:	01 97       	sbiw	r24, 0x01	; 1
    13d0:	f1 f7       	brne	.-4      	;  0x13ce
    13d2:	4a e0       	ldi	r20, 0x0A	; 10
    13d4:	68 e0       	ldi	r22, 0x08	; 8
    13d6:	70 e0       	ldi	r23, 0x00	; 0
    13d8:	ce 01       	movw	r24, r28
    13da:	0e 94 91 08 	call	0x1122	;  0x1122
    13de:	80 eb       	ldi	r24, 0xB0	; 176
    13e0:	94 e0       	ldi	r25, 0x04	; 4
    13e2:	01 97       	sbiw	r24, 0x01	; 1
    13e4:	f1 f7       	brne	.-4      	;  0x13e2
    13e6:	4a e0       	ldi	r20, 0x0A	; 10
    13e8:	61 e0       	ldi	r22, 0x01	; 1
    13ea:	70 e0       	ldi	r23, 0x00	; 0
    13ec:	ce 01       	movw	r24, r28
    13ee:	0e 94 91 08 	call	0x1122	;  0x1122
    13f2:	80 ea       	ldi	r24, 0xA0	; 160
    13f4:	9f e0       	ldi	r25, 0x0F	; 15
    13f6:	01 97       	sbiw	r24, 0x01	; 1
    13f8:	f1 f7       	brne	.-4      	;  0x13f6
    13fa:	4a e0       	ldi	r20, 0x0A	; 10
    13fc:	66 e0       	ldi	r22, 0x06	; 6
    13fe:	70 e0       	ldi	r23, 0x00	; 0
    1400:	ce 01       	movw	r24, r28
    1402:	0e 94 91 08 	call	0x1122	;  0x1122
    1406:	80 eb       	ldi	r24, 0xB0	; 176
    1408:	94 e0       	ldi	r25, 0x04	; 4
    140a:	01 97       	sbiw	r24, 0x01	; 1
    140c:	f1 f7       	brne	.-4      	;  0x140a
    140e:	4a e0       	ldi	r20, 0x0A	; 10
    1410:	62 e0       	ldi	r22, 0x02	; 2
    1412:	70 e0       	ldi	r23, 0x00	; 0
    1414:	ce 01       	movw	r24, r28
    1416:	0e 94 91 08 	call	0x1122	;  0x1122
    141a:	80 eb       	ldi	r24, 0xB0	; 176
    141c:	94 e0       	ldi	r25, 0x04	; 4
    141e:	01 97       	sbiw	r24, 0x01	; 1
    1420:	f1 f7       	brne	.-4      	;  0x141e
    1422:	4a e0       	ldi	r20, 0x0A	; 10
    1424:	6c e0       	ldi	r22, 0x0C	; 12
    1426:	70 e0       	ldi	r23, 0x00	; 0
    1428:	ce 01       	movw	r24, r28
    142a:	0e 94 91 08 	call	0x1122	;  0x1122
    142e:	80 eb       	ldi	r24, 0xB0	; 176
    1430:	94 e0       	ldi	r25, 0x04	; 4
    1432:	01 97       	sbiw	r24, 0x01	; 1
    1434:	f1 f7       	brne	.-4      	;  0x1432
    1436:	4a e0       	ldi	r20, 0x0A	; 10
    1438:	60 e8       	ldi	r22, 0x80	; 128
    143a:	70 e0       	ldi	r23, 0x00	; 0
    143c:	ce 01       	movw	r24, r28
    143e:	0e 94 91 08 	call	0x1122	;  0x1122
    1442:	80 eb       	ldi	r24, 0xB0	; 176
    1444:	94 e0       	ldi	r25, 0x04	; 4
    1446:	01 97       	sbiw	r24, 0x01	; 1
    1448:	f1 f7       	brne	.-4      	;  0x1446
    144a:	61 e0       	ldi	r22, 0x01	; 1
    144c:	89 e0       	ldi	r24, 0x09	; 9
    144e:	0e 94 41 11 	call	0x2282	;  0x2282
    1452:	82 e0       	ldi	r24, 0x02	; 2
    1454:	8a 95       	dec	r24
    1456:	f1 f7       	brne	.-4      	;  0x1454
    1458:	81 e0       	ldi	r24, 0x01	; 1
    145a:	88 83       	st	Y, r24
    145c:	89 81       	ldd	r24, Y+1	; 0x01
    145e:	88 23       	and	r24, r24
    1460:	41 f0       	breq	.+16     	;  0x1472
    1462:	be 01       	movw	r22, r28
    1464:	6f 5f       	subi	r22, 0xFF	; 255
    1466:	7f 4f       	sbci	r23, 0xFF	; 255
    1468:	ce 01       	movw	r24, r28
    146a:	df 91       	pop	r29
    146c:	cf 91       	pop	r28
    146e:	0c 94 43 09 	jmp	0x1286	;  0x1286
    1472:	df 91       	pop	r29
    1474:	cf 91       	pop	r28
    1476:	08 95       	ret
    1478:	84 e6       	ldi	r24, 0x64	; 100
    147a:	93 e0       	ldi	r25, 0x03	; 3
    147c:	0c 94 5e 08 	jmp	0x10bc	;  0x10bc
    1480:	83 b7       	in	r24, 0x33	; 51
    1482:	8e 7f       	andi	r24, 0xFE	; 254
    1484:	83 bf       	out	0x33, r24	; 51
    1486:	08 95       	ret
    1488:	8e b3       	in	r24, 0x1e	; 30
    148a:	83 fb       	bst	r24, 3
    148c:	88 27       	eor	r24, r24
    148e:	80 f9       	bld	r24, 0
    1490:	80 93 07 04 	sts	0x0407, r24
    1494:	14 be       	out	0x34, r1	; 52
    1496:	88 e1       	ldi	r24, 0x18	; 24
    1498:	0f b6       	in	r0, 0x3f	; 63
    149a:	f8 94       	cli
    149c:	80 93 60 00 	sts	0x0060, r24
    14a0:	10 92 60 00 	sts	0x0060, r1
    14a4:	0f be       	out	0x3f, r0	; 63
    14a6:	60 e0       	ldi	r22, 0x00	; 0
    14a8:	83 e0       	ldi	r24, 0x03	; 3
    14aa:	0e 94 1b 11 	call	0x2236	;  0x2236
    14ae:	60 e0       	ldi	r22, 0x00	; 0
    14b0:	83 e0       	ldi	r24, 0x03	; 3
    14b2:	0e 94 41 11 	call	0x2282	;  0x2282
    14b6:	60 e0       	ldi	r22, 0x00	; 0
    14b8:	82 e0       	ldi	r24, 0x02	; 2
    14ba:	0e 94 1b 11 	call	0x2236	;  0x2236
    14be:	61 e0       	ldi	r22, 0x01	; 1
    14c0:	82 e0       	ldi	r24, 0x02	; 2
    14c2:	0e 94 41 11 	call	0x2282	;  0x2282
    14c6:	60 e0       	ldi	r22, 0x00	; 0
    14c8:	86 e0       	ldi	r24, 0x06	; 6
    14ca:	0e 94 41 11 	call	0x2282	;  0x2282
    14ce:	61 e0       	ldi	r22, 0x01	; 1
    14d0:	86 e0       	ldi	r24, 0x06	; 6
    14d2:	0e 94 1b 11 	call	0x2236	;  0x2236
    14d6:	61 e0       	ldi	r22, 0x01	; 1
    14d8:	87 e0       	ldi	r24, 0x07	; 7
    14da:	0e 94 41 11 	call	0x2282	;  0x2282
    14de:	61 e0       	ldi	r22, 0x01	; 1
    14e0:	87 e0       	ldi	r24, 0x07	; 7
    14e2:	0e 94 1b 11 	call	0x2236	;  0x2236
    14e6:	60 e0       	ldi	r22, 0x00	; 0
    14e8:	88 e0       	ldi	r24, 0x08	; 8
    14ea:	0e 94 41 11 	call	0x2282	;  0x2282
    14ee:	61 e0       	ldi	r22, 0x01	; 1
    14f0:	88 e0       	ldi	r24, 0x08	; 8
    14f2:	0e 94 1b 11 	call	0x2236	;  0x2236
    14f6:	60 e0       	ldi	r22, 0x00	; 0
    14f8:	8d e0       	ldi	r24, 0x0D	; 13
    14fa:	0e 94 41 11 	call	0x2282	;  0x2282
    14fe:	61 e0       	ldi	r22, 0x01	; 1
    1500:	8d e0       	ldi	r24, 0x0D	; 13
    1502:	0e 94 1b 11 	call	0x2236	;  0x2236
    1506:	83 e0       	ldi	r24, 0x03	; 3
    1508:	0e 94 f6 10 	call	0x21ec	;  0x21ec
    150c:	60 e0       	ldi	r22, 0x00	; 0
    150e:	87 e0       	ldi	r24, 0x07	; 7
    1510:	0e 94 41 11 	call	0x2282	;  0x2282
    1514:	64 ef       	ldi	r22, 0xF4	; 244
    1516:	71 e0       	ldi	r23, 0x01	; 1
    1518:	80 e0       	ldi	r24, 0x00	; 0
    151a:	90 e0       	ldi	r25, 0x00	; 0
    151c:	0e 94 58 10 	call	0x20b0	;  0x20b0
    1520:	84 e6       	ldi	r24, 0x64	; 100
    1522:	93 e0       	ldi	r25, 0x03	; 3
    1524:	0e 94 a3 09 	call	0x1346	;  0x1346
    1528:	66 e3       	ldi	r22, 0x36	; 54
    152a:	71 e0       	ldi	r23, 0x01	; 1
    152c:	84 e6       	ldi	r24, 0x64	; 100
    152e:	93 e0       	ldi	r25, 0x03	; 3
    1530:	0e 94 90 09 	call	0x1320	;  0x1320
    1534:	89 e0       	ldi	r24, 0x09	; 9
    1536:	93 e0       	ldi	r25, 0x03	; 3
    1538:	0e 94 12 03 	call	0x624	;  0x624
    153c:	40 e0       	ldi	r20, 0x00	; 0
    153e:	56 e9       	ldi	r21, 0x96	; 150
    1540:	60 e0       	ldi	r22, 0x00	; 0
    1542:	70 e0       	ldi	r23, 0x00	; 0
    1544:	81 e9       	ldi	r24, 0x91	; 145
    1546:	94 e0       	ldi	r25, 0x04	; 4
    1548:	0e 94 80 06 	call	0xd00	;  0xd00
    154c:	60 e0       	ldi	r22, 0x00	; 0
    154e:	70 e0       	ldi	r23, 0x00	; 0
    1550:	8c e9       	ldi	r24, 0x9C	; 156
    1552:	92 e0       	ldi	r25, 0x02	; 2
    1554:	0e 94 90 00 	call	0x120	;  0x120
    1558:	80 93 08 04 	sts	0x0408, r24
    155c:	90 91 07 04 	lds	r25, 0x0407
    1560:	99 23       	and	r25, r25
    1562:	51 f0       	breq	.+20     	;  0x1578
    1564:	41 e0       	ldi	r20, 0x01	; 1
    1566:	48 0f       	add	r20, r24
    1568:	40 93 08 04 	sts	0x0408, r20
    156c:	60 e0       	ldi	r22, 0x00	; 0
    156e:	70 e0       	ldi	r23, 0x00	; 0
    1570:	8c e9       	ldi	r24, 0x9C	; 156
    1572:	92 e0       	ldi	r25, 0x02	; 2
    1574:	0c 94 97 00 	jmp	0x12e	;  0x12e
    1578:	08 95       	ret
    157a:	4f 92       	push	r4
    157c:	5f 92       	push	r5
    157e:	6f 92       	push	r6
    1580:	7f 92       	push	r7
    1582:	8f 92       	push	r8
    1584:	9f 92       	push	r9
    1586:	af 92       	push	r10
    1588:	bf 92       	push	r11
    158a:	cf 92       	push	r12
    158c:	df 92       	push	r13
    158e:	ef 92       	push	r14
    1590:	ff 92       	push	r15
    1592:	0f 93       	push	r16
    1594:	1f 93       	push	r17
    1596:	cf 93       	push	r28
    1598:	df 93       	push	r29
    159a:	cd b7       	in	r28, 0x3d	; 61
    159c:	de b7       	in	r29, 0x3e	; 62
    159e:	28 97       	sbiw	r28, 0x08	; 8
    15a0:	0f b6       	in	r0, 0x3f	; 63
    15a2:	f8 94       	cli
    15a4:	de bf       	out	0x3e, r29	; 62
    15a6:	0f be       	out	0x3f, r0	; 63
    15a8:	cd bf       	out	0x3d, r28	; 61
    15aa:	4b 01       	movw	r8, r22
    15ac:	5c 01       	movw	r10, r24
    15ae:	29 01       	movw	r4, r18
    15b0:	3a 01       	movw	r6, r20
    15b2:	b8 01       	movw	r22, r16
    15b4:	80 e0       	ldi	r24, 0x00	; 0
    15b6:	90 e0       	ldi	r25, 0x00	; 0
    15b8:	0e 94 29 15 	call	0x2a52	;  0x2a52
    15bc:	26 e6       	ldi	r18, 0x66	; 102
    15be:	36 e6       	ldi	r19, 0x66	; 102
    15c0:	40 e6       	ldi	r20, 0x60	; 96
    15c2:	53 e4       	ldi	r21, 0x43	; 67
    15c4:	0e 94 90 14 	call	0x2920	;  0x2920
    15c8:	6b 01       	movw	r12, r22
    15ca:	7c 01       	movw	r14, r24
    15cc:	2a e9       	ldi	r18, 0x9A	; 154
    15ce:	39 e9       	ldi	r19, 0x99	; 153
    15d0:	45 e8       	ldi	r20, 0x85	; 133
    15d2:	50 e4       	ldi	r21, 0x40	; 64
    15d4:	0e 94 db 15 	call	0x2bb6	;  0x2bb6
    15d8:	18 16       	cp	r1, r24
    15da:	8c f0       	brlt	.+34     	;  0x15fe
    15dc:	20 e0       	ldi	r18, 0x00	; 0
    15de:	30 e0       	ldi	r19, 0x00	; 0
    15e0:	40 e6       	ldi	r20, 0x60	; 96
    15e2:	50 e4       	ldi	r21, 0x40	; 64
    15e4:	c7 01       	movw	r24, r14
    15e6:	b6 01       	movw	r22, r12
    15e8:	0e 94 8c 14 	call	0x2918	;  0x2918
    15ec:	87 ff       	sbrs	r24, 7
    15ee:	0f c0       	rjmp	.+30     	;  0x160e
    15f0:	c1 2c       	mov	r12, r1
    15f2:	d1 2c       	mov	r13, r1
    15f4:	80 e6       	ldi	r24, 0x60	; 96
    15f6:	e8 2e       	mov	r14, r24
    15f8:	80 e4       	ldi	r24, 0x40	; 64
    15fa:	f8 2e       	mov	r15, r24
    15fc:	08 c0       	rjmp	.+16     	;  0x160e
    15fe:	9a e9       	ldi	r25, 0x9A	; 154
    1600:	c9 2e       	mov	r12, r25
    1602:	99 e9       	ldi	r25, 0x99	; 153
    1604:	d9 2e       	mov	r13, r25
    1606:	95 e8       	ldi	r25, 0x85	; 133
    1608:	e9 2e       	mov	r14, r25
    160a:	90 e4       	ldi	r25, 0x40	; 64
    160c:	f9 2e       	mov	r15, r25
    160e:	c3 01       	movw	r24, r6
    1610:	b2 01       	movw	r22, r4
    1612:	0e 94 f8 14 	call	0x29f0	;  0x29f0
    1616:	69 83       	std	Y+1, r22	; 0x01
    1618:	7a 83       	std	Y+2, r23	; 0x02
    161a:	8b 83       	std	Y+3, r24	; 0x03
    161c:	9c 83       	std	Y+4, r25	; 0x04
    161e:	c5 01       	movw	r24, r10
    1620:	b4 01       	movw	r22, r8
    1622:	0e 94 f8 14 	call	0x29f0	;  0x29f0
    1626:	6d 83       	std	Y+5, r22	; 0x05
    1628:	7e 83       	std	Y+6, r23	; 0x06
    162a:	8f 83       	std	Y+7, r24	; 0x07
    162c:	98 87       	std	Y+8, r25	; 0x08
    162e:	20 e0       	ldi	r18, 0x00	; 0
    1630:	30 e0       	ldi	r19, 0x00	; 0
    1632:	40 e6       	ldi	r20, 0x60	; 96
    1634:	50 e4       	ldi	r21, 0x40	; 64
    1636:	c7 01       	movw	r24, r14
    1638:	b6 01       	movw	r22, r12
    163a:	0e 94 27 14 	call	0x284e	;  0x284e
    163e:	20 ed       	ldi	r18, 0xD0	; 208
    1640:	3c ec       	ldi	r19, 0xCC	; 204
    1642:	4c e2       	ldi	r20, 0x2C	; 44
    1644:	5f e3       	ldi	r21, 0x3F	; 63
    1646:	0e 94 90 14 	call	0x2920	;  0x2920
    164a:	20 e0       	ldi	r18, 0x00	; 0
    164c:	30 e0       	ldi	r19, 0x00	; 0
    164e:	48 ec       	ldi	r20, 0xC8	; 200
    1650:	52 e4       	ldi	r21, 0x42	; 66
    1652:	0e 94 df 15 	call	0x2bbe	;  0x2bbe
    1656:	0e 94 f8 14 	call	0x29f0	;  0x29f0
    165a:	7f 93       	push	r23
    165c:	6f 93       	push	r22
    165e:	29 81       	ldd	r18, Y+1	; 0x01
    1660:	3a 81       	ldd	r19, Y+2	; 0x02
    1662:	b9 01       	movw	r22, r18
    1664:	88 27       	eor	r24, r24
    1666:	77 fd       	sbrc	r23, 7
    1668:	80 95       	com	r24
    166a:	98 2f       	mov	r25, r24
    166c:	0e 94 2b 15 	call	0x2a56	;  0x2a56
    1670:	9b 01       	movw	r18, r22
    1672:	ac 01       	movw	r20, r24
    1674:	c3 01       	movw	r24, r6
    1676:	b2 01       	movw	r22, r4
    1678:	0e 94 27 14 	call	0x284e	;  0x284e
    167c:	9f 77       	andi	r25, 0x7F	; 127
    167e:	20 e0       	ldi	r18, 0x00	; 0
    1680:	30 e0       	ldi	r19, 0x00	; 0
    1682:	48 ec       	ldi	r20, 0xC8	; 200
    1684:	52 e4       	ldi	r21, 0x42	; 66
    1686:	0e 94 df 15 	call	0x2bbe	;  0x2bbe
    168a:	0e 94 f8 14 	call	0x29f0	;  0x29f0
    168e:	7f 93       	push	r23
    1690:	6f 93       	push	r22
    1692:	3a 81       	ldd	r19, Y+2	; 0x02
    1694:	3f 93       	push	r19
    1696:	89 81       	ldd	r24, Y+1	; 0x01
    1698:	8f 93       	push	r24
    169a:	ed 81       	ldd	r30, Y+5	; 0x05
    169c:	fe 81       	ldd	r31, Y+6	; 0x06
    169e:	bf 01       	movw	r22, r30
    16a0:	88 27       	eor	r24, r24
    16a2:	77 fd       	sbrc	r23, 7
    16a4:	80 95       	com	r24
    16a6:	98 2f       	mov	r25, r24
    16a8:	0e 94 2b 15 	call	0x2a56	;  0x2a56
    16ac:	9b 01       	movw	r18, r22
    16ae:	ac 01       	movw	r20, r24
    16b0:	c5 01       	movw	r24, r10
    16b2:	b4 01       	movw	r22, r8
    16b4:	0e 94 27 14 	call	0x284e	;  0x284e
    16b8:	9f 77       	andi	r25, 0x7F	; 127
    16ba:	20 e0       	ldi	r18, 0x00	; 0
    16bc:	30 e0       	ldi	r19, 0x00	; 0
    16be:	48 ec       	ldi	r20, 0xC8	; 200
    16c0:	52 e4       	ldi	r21, 0x42	; 66
    16c2:	0e 94 df 15 	call	0x2bbe	;  0x2bbe
    16c6:	0e 94 f8 14 	call	0x29f0	;  0x29f0
    16ca:	7f 93       	push	r23
    16cc:	6f 93       	push	r22
    16ce:	fe 81       	ldd	r31, Y+6	; 0x06
    16d0:	ff 93       	push	r31
    16d2:	2d 81       	ldd	r18, Y+5	; 0x05
    16d4:	2f 93       	push	r18
    16d6:	88 e5       	ldi	r24, 0x58	; 88
    16d8:	91 e0       	ldi	r25, 0x01	; 1
    16da:	9f 93       	push	r25
    16dc:	8f 93       	push	r24
    16de:	0b e0       	ldi	r16, 0x0B	; 11
    16e0:	14 e0       	ldi	r17, 0x04	; 4
    16e2:	1f 93       	push	r17
    16e4:	0f 93       	push	r16
    16e6:	0e 94 e2 16 	call	0x2dc4	;  0x2dc4
    16ea:	f8 01       	movw	r30, r16
    16ec:	01 90       	ld	r0, Z+
    16ee:	00 20       	and	r0, r0
    16f0:	e9 f7       	brne	.-6      	;  0x16ec
    16f2:	9f 01       	movw	r18, r30
    16f4:	21 50       	subi	r18, 0x01	; 1
    16f6:	31 09       	sbc	r19, r1
    16f8:	2b 50       	subi	r18, 0x0B	; 11
    16fa:	34 40       	sbci	r19, 0x04	; 4
    16fc:	0f b6       	in	r0, 0x3f	; 63
    16fe:	f8 94       	cli
    1700:	de bf       	out	0x3e, r29	; 62
    1702:	0f be       	out	0x3f, r0	; 63
    1704:	cd bf       	out	0x3d, r28	; 61
    1706:	a8 01       	movw	r20, r16
    1708:	64 e7       	ldi	r22, 0x74	; 116
    170a:	74 e0       	ldi	r23, 0x04	; 4
    170c:	8c e7       	ldi	r24, 0x7C	; 124
    170e:	94 e0       	ldi	r25, 0x04	; 4
    1710:	28 96       	adiw	r28, 0x08	; 8
    1712:	0f b6       	in	r0, 0x3f	; 63
    1714:	f8 94       	cli
    1716:	de bf       	out	0x3e, r29	; 62
    1718:	0f be       	out	0x3f, r0	; 63
    171a:	cd bf       	out	0x3d, r28	; 61
    171c:	df 91       	pop	r29
    171e:	cf 91       	pop	r28
    1720:	1f 91       	pop	r17
    1722:	0f 91       	pop	r16
    1724:	ff 90       	pop	r15
    1726:	ef 90       	pop	r14
    1728:	df 90       	pop	r13
    172a:	cf 90       	pop	r12
    172c:	bf 90       	pop	r11
    172e:	af 90       	pop	r10
    1730:	9f 90       	pop	r9
    1732:	8f 90       	pop	r8
    1734:	7f 90       	pop	r7
    1736:	6f 90       	pop	r6
    1738:	5f 90       	pop	r5
    173a:	4f 90       	pop	r4
    173c:	0c 94 c3 03 	jmp	0x786	;  0x786
    1740:	cf 93       	push	r28
    1742:	df 93       	push	r29
    1744:	80 91 06 04 	lds	r24, 0x0406
    1748:	90 e0       	ldi	r25, 0x00	; 0
    174a:	91 95       	neg	r25
    174c:	81 95       	neg	r24
    174e:	91 09       	sbc	r25, r1
    1750:	9f 93       	push	r25
    1752:	8f 93       	push	r24
    1754:	80 91 08 04 	lds	r24, 0x0408
    1758:	1f 92       	push	r1
    175a:	8f 93       	push	r24
    175c:	80 91 5e 04 	lds	r24, 0x045E
    1760:	1f 92       	push	r1
    1762:	8f 93       	push	r24
    1764:	80 91 5f 04 	lds	r24, 0x045F
    1768:	1f 92       	push	r1
    176a:	8f 93       	push	r24
    176c:	80 91 60 04 	lds	r24, 0x0460
    1770:	1f 92       	push	r1
    1772:	8f 93       	push	r24
    1774:	87 e9       	ldi	r24, 0x97	; 151
    1776:	91 e0       	ldi	r25, 0x01	; 1
    1778:	9f 93       	push	r25
    177a:	8f 93       	push	r24
    177c:	cb e0       	ldi	r28, 0x0B	; 11
    177e:	d4 e0       	ldi	r29, 0x04	; 4
    1780:	df 93       	push	r29
    1782:	cf 93       	push	r28
    1784:	0e 94 e2 16 	call	0x2dc4	;  0x2dc4
    1788:	fe 01       	movw	r30, r28
    178a:	01 90       	ld	r0, Z+
    178c:	00 20       	and	r0, r0
    178e:	e9 f7       	brne	.-6      	;  0x178a
    1790:	9f 01       	movw	r18, r30
    1792:	21 50       	subi	r18, 0x01	; 1
    1794:	31 09       	sbc	r19, r1
    1796:	2b 50       	subi	r18, 0x0B	; 11
    1798:	34 40       	sbci	r19, 0x04	; 4
    179a:	8d b7       	in	r24, 0x3d	; 61
    179c:	9e b7       	in	r25, 0x3e	; 62
    179e:	0e 96       	adiw	r24, 0x0e	; 14
    17a0:	0f b6       	in	r0, 0x3f	; 63
    17a2:	f8 94       	cli
    17a4:	9e bf       	out	0x3e, r25	; 62
    17a6:	0f be       	out	0x3f, r0	; 63
    17a8:	8d bf       	out	0x3d, r24	; 61
    17aa:	ae 01       	movw	r20, r28
    17ac:	64 e7       	ldi	r22, 0x74	; 116
    17ae:	74 e0       	ldi	r23, 0x04	; 4
    17b0:	8c e7       	ldi	r24, 0x7C	; 124
    17b2:	94 e0       	ldi	r25, 0x04	; 4
    17b4:	df 91       	pop	r29
    17b6:	cf 91       	pop	r28
    17b8:	0c 94 c3 03 	jmp	0x786	;  0x786
    17bc:	cf 93       	push	r28
    17be:	df 93       	push	r29
    17c0:	9f 93       	push	r25
    17c2:	8f 93       	push	r24
    17c4:	8f ec       	ldi	r24, 0xCF	; 207
    17c6:	91 e0       	ldi	r25, 0x01	; 1
    17c8:	9f 93       	push	r25
    17ca:	8f 93       	push	r24
    17cc:	cb e0       	ldi	r28, 0x0B	; 11
    17ce:	d4 e0       	ldi	r29, 0x04	; 4
    17d0:	df 93       	push	r29
    17d2:	cf 93       	push	r28
    17d4:	0e 94 e2 16 	call	0x2dc4	;  0x2dc4
    17d8:	fe 01       	movw	r30, r28
    17da:	01 90       	ld	r0, Z+
    17dc:	00 20       	and	r0, r0
    17de:	e9 f7       	brne	.-6      	;  0x17da
    17e0:	9f 01       	movw	r18, r30
    17e2:	21 50       	subi	r18, 0x01	; 1
    17e4:	31 09       	sbc	r19, r1
    17e6:	2b 50       	subi	r18, 0x0B	; 11
    17e8:	34 40       	sbci	r19, 0x04	; 4
    17ea:	0f 90       	pop	r0
    17ec:	0f 90       	pop	r0
    17ee:	0f 90       	pop	r0
    17f0:	0f 90       	pop	r0
    17f2:	0f 90       	pop	r0
    17f4:	0f 90       	pop	r0
    17f6:	ae 01       	movw	r20, r28
    17f8:	64 e7       	ldi	r22, 0x74	; 116
    17fa:	74 e0       	ldi	r23, 0x04	; 4
    17fc:	8c e7       	ldi	r24, 0x7C	; 124
    17fe:	94 e0       	ldi	r25, 0x04	; 4
    1800:	df 91       	pop	r29
    1802:	cf 91       	pop	r28
    1804:	0c 94 c3 03 	jmp	0x786	;  0x786
    1808:	cf 93       	push	r28
    180a:	df 93       	push	r29
    180c:	61 e0       	ldi	r22, 0x01	; 1
    180e:	88 e0       	ldi	r24, 0x08	; 8
    1810:	0e 94 41 11 	call	0x2282	;  0x2282
    1814:	61 e0       	ldi	r22, 0x01	; 1
    1816:	70 e0       	ldi	r23, 0x00	; 0
    1818:	80 e0       	ldi	r24, 0x00	; 0
    181a:	90 e0       	ldi	r25, 0x00	; 0
    181c:	0e 94 58 10 	call	0x20b0	;  0x20b0
    1820:	80 e0       	ldi	r24, 0x00	; 0
    1822:	0e 94 f9 10 	call	0x21f2	;  0x21f2
    1826:	ec 01       	movw	r28, r24
    1828:	60 e0       	ldi	r22, 0x00	; 0
    182a:	88 e0       	ldi	r24, 0x08	; 8
    182c:	0e 94 41 11 	call	0x2282	;  0x2282
    1830:	ce 01       	movw	r24, r28
    1832:	df 91       	pop	r29
    1834:	cf 91       	pop	r28
    1836:	08 95       	ret
    1838:	1f 93       	push	r17
    183a:	cf 93       	push	r28
    183c:	df 93       	push	r29
    183e:	18 2f       	mov	r17, r24
    1840:	c0 e0       	ldi	r28, 0x00	; 0
    1842:	d0 e0       	ldi	r29, 0x00	; 0
    1844:	11 23       	and	r17, r17
    1846:	19 f0       	breq	.+6      	;  0x184e
    1848:	24 ef       	ldi	r18, 0xF4	; 244
    184a:	31 e0       	ldi	r19, 0x01	; 1
    184c:	02 c0       	rjmp	.+4      	;  0x1852
    184e:	22 e3       	ldi	r18, 0x32	; 50
    1850:	30 e0       	ldi	r19, 0x00	; 0
    1852:	c2 17       	cp	r28, r18
    1854:	d3 07       	cpc	r29, r19
    1856:	90 f4       	brcc	.+36     	;  0x187c
    1858:	61 e0       	ldi	r22, 0x01	; 1
    185a:	86 e0       	ldi	r24, 0x06	; 6
    185c:	0e 94 41 11 	call	0x2282	;  0x2282
    1860:	80 e9       	ldi	r24, 0x90	; 144
    1862:	91 e0       	ldi	r25, 0x01	; 1
    1864:	0e 94 b1 10 	call	0x2162	;  0x2162
    1868:	60 e0       	ldi	r22, 0x00	; 0
    186a:	86 e0       	ldi	r24, 0x06	; 6
    186c:	0e 94 41 11 	call	0x2282	;  0x2282
    1870:	80 e9       	ldi	r24, 0x90	; 144
    1872:	91 e0       	ldi	r25, 0x01	; 1
    1874:	0e 94 b1 10 	call	0x2162	;  0x2162
    1878:	21 96       	adiw	r28, 0x01	; 1
    187a:	e4 cf       	rjmp	.-56     	;  0x1844
    187c:	df 91       	pop	r29
    187e:	cf 91       	pop	r28
    1880:	1f 91       	pop	r17
    1882:	08 95       	ret
    1884:	80 91 5d 04 	lds	r24, 0x045D
    1888:	81 11       	cpse	r24, r1
    188a:	0a c0       	rjmp	.+20     	;  0x18a0
    188c:	81 e0       	ldi	r24, 0x01	; 1
    188e:	0e 94 f9 10 	call	0x21f2	;  0x21f2
    1892:	21 e0       	ldi	r18, 0x01	; 1
    1894:	84 3f       	cpi	r24, 0xF4	; 244
    1896:	91 40       	sbci	r25, 0x01	; 1
    1898:	0c f0       	brlt	.+2      	;  0x189c
    189a:	20 e0       	ldi	r18, 0x00	; 0
    189c:	20 93 5d 04 	sts	0x045D, r18
    18a0:	82 e0       	ldi	r24, 0x02	; 2
    18a2:	0e 94 f9 10 	call	0x21f2	;  0x21f2
    18a6:	21 e0       	ldi	r18, 0x01	; 1
    18a8:	84 3f       	cpi	r24, 0xF4	; 244
    18aa:	91 40       	sbci	r25, 0x01	; 1
    18ac:	0c f0       	brlt	.+2      	;  0x18b0
    18ae:	20 e0       	ldi	r18, 0x00	; 0
    18b0:	20 93 5c 04 	sts	0x045C, r18
    18b4:	83 e0       	ldi	r24, 0x03	; 3
    18b6:	0e 94 f9 10 	call	0x21f2	;  0x21f2
    18ba:	21 e0       	ldi	r18, 0x01	; 1
    18bc:	84 3f       	cpi	r24, 0xF4	; 244
    18be:	91 40       	sbci	r25, 0x01	; 1
    18c0:	0c f0       	brlt	.+2      	;  0x18c4
    18c2:	20 e0       	ldi	r18, 0x00	; 0
    18c4:	20 93 5b 04 	sts	0x045B, r18
    18c8:	21 11       	cpse	r18, r1
    18ca:	04 c0       	rjmp	.+8      	;  0x18d4
    18cc:	80 91 5c 04 	lds	r24, 0x045C
    18d0:	88 23       	and	r24, r24
    18d2:	19 f0       	breq	.+6      	;  0x18da
    18d4:	80 e0       	ldi	r24, 0x00	; 0
    18d6:	0e 94 89 0f 	call	0x1f12	;  0x1f12
    18da:	80 91 5c 04 	lds	r24, 0x045C
    18de:	90 91 5d 04 	lds	r25, 0x045D
    18e2:	89 2b       	or	r24, r25
    18e4:	21 f4       	brne	.+8      	;  0x18ee
    18e6:	80 91 5b 04 	lds	r24, 0x045B
    18ea:	88 23       	and	r24, r24
    18ec:	31 f0       	breq	.+12     	;  0x18fa
    18ee:	83 b7       	in	r24, 0x33	; 51
    18f0:	8e 7f       	andi	r24, 0xFE	; 254
    18f2:	83 bf       	out	0x33, r24	; 51
    18f4:	80 e0       	ldi	r24, 0x00	; 0
    18f6:	0c 94 1c 0c 	jmp	0x1838	;  0x1838
    18fa:	08 95       	ret
    18fc:	1f 93       	push	r17
    18fe:	cf 93       	push	r28
    1900:	df 93       	push	r29
    1902:	ec 01       	movw	r28, r24
    1904:	0e 94 f7 04 	call	0x9ee	;  0x9ee
    1908:	18 2f       	mov	r17, r24
    190a:	ce 01       	movw	r24, r28
    190c:	0e 94 0c 06 	call	0xc18	;  0xc18
    1910:	bc 01       	movw	r22, r24
    1912:	41 2f       	mov	r20, r17
    1914:	50 e0       	ldi	r21, 0x00	; 0
    1916:	8b e0       	ldi	r24, 0x0B	; 11
    1918:	94 e0       	ldi	r25, 0x04	; 4
    191a:	0e 94 ac 16 	call	0x2d58	;  0x2d58
    191e:	ce 01       	movw	r24, r28
    1920:	0e 94 f7 04 	call	0x9ee	;  0x9ee
    1924:	e8 2f       	mov	r30, r24
    1926:	f0 e0       	ldi	r31, 0x00	; 0
    1928:	e5 5f       	subi	r30, 0xF5	; 245
    192a:	fb 4f       	sbci	r31, 0xFB	; 251
    192c:	10 82       	st	Z, r1
    192e:	eb e0       	ldi	r30, 0x0B	; 11
    1930:	f4 e0       	ldi	r31, 0x04	; 4
    1932:	01 90       	ld	r0, Z+
    1934:	00 20       	and	r0, r0
    1936:	e9 f7       	brne	.-6      	;  0x1932
    1938:	31 97       	sbiw	r30, 0x01	; 1
    193a:	eb 50       	subi	r30, 0x0B	; 11
    193c:	f4 40       	sbci	r31, 0x04	; 4
    193e:	38 97       	sbiw	r30, 0x08	; 8
    1940:	e8 f0       	brcs	.+58     	;  0x197c
    1942:	4c e0       	ldi	r20, 0x0C	; 12
    1944:	50 e0       	ldi	r21, 0x00	; 0
    1946:	6b e0       	ldi	r22, 0x0B	; 11
    1948:	74 e0       	ldi	r23, 0x04	; 4
    194a:	84 ee       	ldi	r24, 0xE4	; 228
    194c:	91 e0       	ldi	r25, 0x01	; 1
    194e:	0e 94 9e 16 	call	0x2d3c	;  0x2d3c
    1952:	89 2b       	or	r24, r25
    1954:	31 f4       	brne	.+12     	;  0x1962
    1956:	81 e0       	ldi	r24, 0x01	; 1
    1958:	0e 94 1c 0c 	call	0x1838	;  0x1838
    195c:	87 e1       	ldi	r24, 0x17	; 23
    195e:	94 e0       	ldi	r25, 0x04	; 4
    1960:	0f c0       	rjmp	.+30     	;  0x1980
    1962:	48 e0       	ldi	r20, 0x08	; 8
    1964:	50 e0       	ldi	r21, 0x00	; 0
    1966:	6b e0       	ldi	r22, 0x0B	; 11
    1968:	74 e0       	ldi	r23, 0x04	; 4
    196a:	81 ef       	ldi	r24, 0xF1	; 241
    196c:	91 e0       	ldi	r25, 0x01	; 1
    196e:	0e 94 9e 16 	call	0x2d3c	;  0x2d3c
    1972:	89 2b       	or	r24, r25
    1974:	19 f4       	brne	.+6      	;  0x197c
    1976:	83 e1       	ldi	r24, 0x13	; 19
    1978:	94 e0       	ldi	r25, 0x04	; 4
    197a:	02 c0       	rjmp	.+4      	;  0x1980
    197c:	80 e0       	ldi	r24, 0x00	; 0
    197e:	90 e0       	ldi	r25, 0x00	; 0
    1980:	df 91       	pop	r29
    1982:	cf 91       	pop	r28
    1984:	1f 91       	pop	r17
    1986:	08 95       	ret
    1988:	3f 92       	push	r3
    198a:	4f 92       	push	r4
    198c:	5f 92       	push	r5
    198e:	6f 92       	push	r6
    1990:	7f 92       	push	r7
    1992:	8f 92       	push	r8
    1994:	9f 92       	push	r9
    1996:	af 92       	push	r10
    1998:	bf 92       	push	r11
    199a:	cf 92       	push	r12
    199c:	df 92       	push	r13
    199e:	ef 92       	push	r14
    19a0:	ff 92       	push	r15
    19a2:	0f 93       	push	r16
    19a4:	1f 93       	push	r17
    19a6:	cf 93       	push	r28
    19a8:	df 93       	push	r29
    19aa:	cd b7       	in	r28, 0x3d	; 61
    19ac:	de b7       	in	r29, 0x3e	; 62
    19ae:	63 97       	sbiw	r28, 0x13	; 19
    19b0:	0f b6       	in	r0, 0x3f	; 63
    19b2:	f8 94       	cli
    19b4:	de bf       	out	0x3e, r29	; 62
    19b6:	0f be       	out	0x3f, r0	; 63
    19b8:	cd bf       	out	0x3d, r28	; 61
    19ba:	31 2c       	mov	r3, r1
    19bc:	3c e6       	ldi	r19, 0x6C	; 108
    19be:	e3 2e       	mov	r14, r19
    19c0:	37 e0       	ldi	r19, 0x07	; 7
    19c2:	f3 2e       	mov	r15, r19
    19c4:	4b e2       	ldi	r20, 0x2B	; 43
    19c6:	64 2e       	mov	r6, r20
    19c8:	42 e0       	ldi	r20, 0x02	; 2
    19ca:	74 2e       	mov	r7, r20
    19cc:	0b e0       	ldi	r16, 0x0B	; 11
    19ce:	14 e0       	ldi	r17, 0x04	; 4
    19d0:	55 e1       	ldi	r21, 0x15	; 21
    19d2:	c5 2e       	mov	r12, r21
    19d4:	52 e0       	ldi	r21, 0x02	; 2
    19d6:	d5 2e       	mov	r13, r21
    19d8:	6a ef       	ldi	r22, 0xFA	; 250
    19da:	a6 2e       	mov	r10, r22
    19dc:	61 e0       	ldi	r22, 0x01	; 1
    19de:	b6 2e       	mov	r11, r22
    19e0:	79 e0       	ldi	r23, 0x09	; 9
    19e2:	57 2e       	mov	r5, r23
    19e4:	e0 e2       	ldi	r30, 0x20	; 32
    19e6:	8e 2e       	mov	r8, r30
    19e8:	e1 e0       	ldi	r30, 0x01	; 1
    19ea:	9e 2e       	mov	r9, r30
    19ec:	f8 e0       	ldi	r31, 0x08	; 8
    19ee:	4f 2e       	mov	r4, r31
    19f0:	b7 01       	movw	r22, r14
    19f2:	81 e9       	ldi	r24, 0x91	; 145
    19f4:	94 e0       	ldi	r25, 0x04	; 4
    19f6:	0e 94 4d 07 	call	0xe9a	;  0xe9a
    19fa:	a8 95       	wdr
    19fc:	81 e9       	ldi	r24, 0x91	; 145
    19fe:	94 e0       	ldi	r25, 0x04	; 4
    1a00:	0e 94 be 06 	call	0xd7c	;  0xd7c
    1a04:	0e 94 61 05 	call	0xac2	;  0xac2
    1a08:	88 23       	and	r24, r24
    1a0a:	09 f4       	brne	.+2      	;  0x1a0e
    1a0c:	82 c0       	rjmp	.+260    	;  0x1b12
    1a0e:	81 e9       	ldi	r24, 0x91	; 145
    1a10:	94 e0       	ldi	r25, 0x04	; 4
    1a12:	0e 94 be 06 	call	0xd7c	;  0xd7c
    1a16:	0e 94 5e 05 	call	0xabc	;  0xabc
    1a1a:	80 39       	cpi	r24, 0x90	; 144
    1a1c:	49 f5       	brne	.+82     	;  0x1a70
    1a1e:	81 e9       	ldi	r24, 0x91	; 145
    1a20:	94 e0       	ldi	r25, 0x04	; 4
    1a22:	0e 94 be 06 	call	0xd7c	;  0xd7c
    1a26:	63 e6       	ldi	r22, 0x63	; 99
    1a28:	74 e0       	ldi	r23, 0x04	; 4
    1a2a:	0e 94 ae 05 	call	0xb5c	;  0xb5c
    1a2e:	e3 e6       	ldi	r30, 0x63	; 99
    1a30:	f4 e0       	ldi	r31, 0x04	; 4
    1a32:	de 01       	movw	r26, r28
    1a34:	13 96       	adiw	r26, 0x03	; 3
    1a36:	85 2d       	mov	r24, r5
    1a38:	01 90       	ld	r0, Z+
    1a3a:	0d 92       	st	X+, r0
    1a3c:	8a 95       	dec	r24
    1a3e:	e1 f7       	brne	.-8      	;  0x1a38
    1a40:	9a 82       	std	Y+2, r9	; 0x02
    1a42:	89 82       	std	Y+1, r8	; 0x01
    1a44:	ec e6       	ldi	r30, 0x6C	; 108
    1a46:	f4 e0       	ldi	r31, 0x04	; 4
    1a48:	de 01       	movw	r26, r28
    1a4a:	1c 96       	adiw	r26, 0x0c	; 12
    1a4c:	84 2d       	mov	r24, r4
    1a4e:	01 90       	ld	r0, Z+
    1a50:	0d 92       	st	X+, r0
    1a52:	8a 95       	dec	r24
    1a54:	e1 f7       	brne	.-8      	;  0x1a4e
    1a56:	ce 01       	movw	r24, r28
    1a58:	01 96       	adiw	r24, 0x01	; 1
    1a5a:	0e 94 7e 0c 	call	0x18fc	;  0x18fc
    1a5e:	00 97       	sbiw	r24, 0x00	; 0
    1a60:	09 f4       	brne	.+2      	;  0x1a64
    1a62:	83 c0       	rjmp	.+262    	;  0x1b6a
    1a64:	bc 01       	movw	r22, r24
    1a66:	84 e6       	ldi	r24, 0x64	; 100
    1a68:	93 e0       	ldi	r25, 0x03	; 3
    1a6a:	0e 94 90 09 	call	0x1320	;  0x1320
    1a6e:	7d c0       	rjmp	.+250    	;  0x1b6a
    1a70:	81 e9       	ldi	r24, 0x91	; 145
    1a72:	94 e0       	ldi	r25, 0x04	; 4
    1a74:	0e 94 be 06 	call	0xd7c	;  0xd7c
    1a78:	0e 94 5e 05 	call	0xabc	;  0xabc
    1a7c:	8a 38       	cpi	r24, 0x8A	; 138
    1a7e:	b1 f4       	brne	.+44     	;  0x1aac
    1a80:	ce 01       	movw	r24, r28
    1a82:	01 96       	adiw	r24, 0x01	; 1
    1a84:	0e 94 20 06 	call	0xc40	;  0xc40
    1a88:	81 e9       	ldi	r24, 0x91	; 145
    1a8a:	94 e0       	ldi	r25, 0x04	; 4
    1a8c:	0e 94 be 06 	call	0xd7c	;  0xd7c
    1a90:	be 01       	movw	r22, r28
    1a92:	6f 5f       	subi	r22, 0xFF	; 255
    1a94:	7f 4f       	sbci	r23, 0xFF	; 255
    1a96:	0e 94 26 06 	call	0xc4c	;  0xc4c
    1a9a:	ce 01       	movw	r24, r28
    1a9c:	01 96       	adiw	r24, 0x01	; 1
    1a9e:	0e 94 21 06 	call	0xc42	;  0xc42
    1aa2:	1f 92       	push	r1
    1aa4:	8f 93       	push	r24
    1aa6:	bf 92       	push	r11
    1aa8:	af 92       	push	r10
    1aaa:	22 c0       	rjmp	.+68     	;  0x1af0
    1aac:	81 e9       	ldi	r24, 0x91	; 145
    1aae:	94 e0       	ldi	r25, 0x04	; 4
    1ab0:	0e 94 be 06 	call	0xd7c	;  0xd7c
    1ab4:	0e 94 5e 05 	call	0xabc	;  0xabc
    1ab8:	8b 38       	cpi	r24, 0x8B	; 139
    1aba:	09 f4       	brne	.+2      	;  0x1abe
    1abc:	99 cf       	rjmp	.-206    	;  0x19f0
    1abe:	81 e9       	ldi	r24, 0x91	; 145
    1ac0:	94 e0       	ldi	r25, 0x04	; 4
    1ac2:	0e 94 be 06 	call	0xd7c	;  0xd7c
    1ac6:	0e 94 5e 05 	call	0xabc	;  0xabc
    1aca:	88 38       	cpi	r24, 0x88	; 136
    1acc:	09 f4       	brne	.+2      	;  0x1ad0
    1ace:	90 cf       	rjmp	.-224    	;  0x19f0
    1ad0:	81 e9       	ldi	r24, 0x91	; 145
    1ad2:	94 e0       	ldi	r25, 0x04	; 4
    1ad4:	0e 94 be 06 	call	0xd7c	;  0xd7c
    1ad8:	0e 94 4e 06 	call	0xc9c	;  0xc9c
    1adc:	81 e9       	ldi	r24, 0x91	; 145
    1ade:	94 e0       	ldi	r25, 0x04	; 4
    1ae0:	0e 94 be 06 	call	0xd7c	;  0xd7c
    1ae4:	0e 94 5e 05 	call	0xabc	;  0xabc
    1ae8:	1f 92       	push	r1
    1aea:	8f 93       	push	r24
    1aec:	df 92       	push	r13
    1aee:	cf 92       	push	r12
    1af0:	1f 93       	push	r17
    1af2:	0f 93       	push	r16
    1af4:	0e 94 e2 16 	call	0x2dc4	;  0x2dc4
    1af8:	6b e0       	ldi	r22, 0x0B	; 11
    1afa:	74 e0       	ldi	r23, 0x04	; 4
    1afc:	84 e6       	ldi	r24, 0x64	; 100
    1afe:	93 e0       	ldi	r25, 0x03	; 3
    1b00:	0e 94 90 09 	call	0x1320	;  0x1320
    1b04:	6c e2       	ldi	r22, 0x2C	; 44
    1b06:	71 e0       	ldi	r23, 0x01	; 1
    1b08:	80 e0       	ldi	r24, 0x00	; 0
    1b0a:	90 e0       	ldi	r25, 0x00	; 0
    1b0c:	0e 94 58 10 	call	0x20b0	;  0x20b0
    1b10:	25 c0       	rjmp	.+74     	;  0x1b5c
    1b12:	81 e9       	ldi	r24, 0x91	; 145
    1b14:	94 e0       	ldi	r25, 0x04	; 4
    1b16:	0e 94 be 06 	call	0xd7c	;  0xd7c
    1b1a:	0e 94 64 05 	call	0xac8	;  0xac8
    1b1e:	88 23       	and	r24, r24
    1b20:	51 f1       	breq	.+84     	;  0x1b76
    1b22:	80 91 5f 04 	lds	r24, 0x045F
    1b26:	8f 5f       	subi	r24, 0xFF	; 255
    1b28:	80 93 5f 04 	sts	0x045F, r24
    1b2c:	81 e9       	ldi	r24, 0x91	; 145
    1b2e:	94 e0       	ldi	r25, 0x04	; 4
    1b30:	0e 94 be 06 	call	0xd7c	;  0xd7c
    1b34:	0e 94 6c 05 	call	0xad8	;  0xad8
    1b38:	1f 92       	push	r1
    1b3a:	8f 93       	push	r24
    1b3c:	7f 92       	push	r7
    1b3e:	6f 92       	push	r6
    1b40:	1f 93       	push	r17
    1b42:	0f 93       	push	r16
    1b44:	0e 94 e2 16 	call	0x2dc4	;  0x2dc4
    1b48:	6b e0       	ldi	r22, 0x0B	; 11
    1b4a:	74 e0       	ldi	r23, 0x04	; 4
    1b4c:	84 e6       	ldi	r24, 0x64	; 100
    1b4e:	93 e0       	ldi	r25, 0x03	; 3
    1b50:	0e 94 90 09 	call	0x1320	;  0x1320
    1b54:	83 e6       	ldi	r24, 0x63	; 99
    1b56:	94 e0       	ldi	r25, 0x04	; 4
    1b58:	0e 94 52 06 	call	0xca4	;  0xca4
    1b5c:	0f 90       	pop	r0
    1b5e:	0f 90       	pop	r0
    1b60:	0f 90       	pop	r0
    1b62:	0f 90       	pop	r0
    1b64:	0f 90       	pop	r0
    1b66:	0f 90       	pop	r0
    1b68:	43 cf       	rjmp	.-378    	;  0x19f0
    1b6a:	33 24       	eor	r3, r3
    1b6c:	33 94       	inc	r3
    1b6e:	24 e6       	ldi	r18, 0x64	; 100
    1b70:	e2 2e       	mov	r14, r18
    1b72:	f1 2c       	mov	r15, r1
    1b74:	3d cf       	rjmp	.-390    	;  0x19f0
    1b76:	31 10       	cpse	r3, r1
    1b78:	17 c0       	rjmp	.+46     	;  0x1ba8
    1b7a:	80 91 05 04 	lds	r24, 0x0405
    1b7e:	81 11       	cpse	r24, r1
    1b80:	04 c0       	rjmp	.+8      	;  0x1b8a
    1b82:	81 e0       	ldi	r24, 0x01	; 1
    1b84:	80 93 05 04 	sts	0x0405, r24
    1b88:	0f c0       	rjmp	.+30     	;  0x1ba8
    1b8a:	80 91 5e 04 	lds	r24, 0x045E
    1b8e:	8f 5f       	subi	r24, 0xFF	; 255
    1b90:	80 93 5e 04 	sts	0x045E, r24
    1b94:	69 e4       	ldi	r22, 0x49	; 73
    1b96:	72 e0       	ldi	r23, 0x02	; 2
    1b98:	84 e6       	ldi	r24, 0x64	; 100
    1b9a:	93 e0       	ldi	r25, 0x03	; 3
    1b9c:	0e 94 90 09 	call	0x1320	;  0x1320
    1ba0:	83 e6       	ldi	r24, 0x63	; 99
    1ba2:	94 e0       	ldi	r25, 0x04	; 4
    1ba4:	0e 94 52 06 	call	0xca4	;  0xca4
    1ba8:	83 2d       	mov	r24, r3
    1baa:	63 96       	adiw	r28, 0x13	; 19
    1bac:	0f b6       	in	r0, 0x3f	; 63
    1bae:	f8 94       	cli
    1bb0:	de bf       	out	0x3e, r29	; 62
    1bb2:	0f be       	out	0x3f, r0	; 63
    1bb4:	cd bf       	out	0x3d, r28	; 61
    1bb6:	df 91       	pop	r29
    1bb8:	cf 91       	pop	r28
    1bba:	1f 91       	pop	r17
    1bbc:	0f 91       	pop	r16
    1bbe:	ff 90       	pop	r15
    1bc0:	ef 90       	pop	r14
    1bc2:	df 90       	pop	r13
    1bc4:	cf 90       	pop	r12
    1bc6:	bf 90       	pop	r11
    1bc8:	af 90       	pop	r10
    1bca:	9f 90       	pop	r9
    1bcc:	8f 90       	pop	r8
    1bce:	7f 90       	pop	r7
    1bd0:	6f 90       	pop	r6
    1bd2:	5f 90       	pop	r5
    1bd4:	4f 90       	pop	r4
    1bd6:	3f 90       	pop	r3
    1bd8:	08 95       	ret
    1bda:	8f 92       	push	r8
    1bdc:	9f 92       	push	r9
    1bde:	af 92       	push	r10
    1be0:	bf 92       	push	r11
    1be2:	cf 92       	push	r12
    1be4:	df 92       	push	r13
    1be6:	ef 92       	push	r14
    1be8:	ff 92       	push	r15
    1bea:	0f 93       	push	r16
    1bec:	1f 93       	push	r17
    1bee:	80 e0       	ldi	r24, 0x00	; 0
    1bf0:	0e 94 89 0f 	call	0x1f12	;  0x1f12
    1bf4:	81 e0       	ldi	r24, 0x01	; 1
    1bf6:	0e 94 89 0f 	call	0x1f12	;  0x1f12
    1bfa:	29 e2       	ldi	r18, 0x29	; 41
    1bfc:	88 e1       	ldi	r24, 0x18	; 24
    1bfe:	90 e0       	ldi	r25, 0x00	; 0
    1c00:	0f b6       	in	r0, 0x3f	; 63
    1c02:	f8 94       	cli
    1c04:	a8 95       	wdr
    1c06:	80 93 60 00 	sts	0x0060, r24
    1c0a:	0f be       	out	0x3f, r0	; 63
    1c0c:	20 93 60 00 	sts	0x0060, r18
    1c10:	a8 95       	wdr
    1c12:	20 91 5c 04 	lds	r18, 0x045C
    1c16:	30 91 5b 04 	lds	r19, 0x045B
    1c1a:	80 91 5d 04 	lds	r24, 0x045D
    1c1e:	82 2b       	or	r24, r18
    1c20:	11 f4       	brne	.+4      	;  0x1c26
    1c22:	33 23       	and	r19, r19
    1c24:	d9 f0       	breq	.+54     	;  0x1c5c
    1c26:	82 e0       	ldi	r24, 0x02	; 2
    1c28:	90 e0       	ldi	r25, 0x00	; 0
    1c2a:	90 93 0a 01 	sts	0x010A, r25
    1c2e:	80 93 09 01 	sts	0x0109, r24
    1c32:	22 23       	and	r18, r18
    1c34:	31 f0       	breq	.+12     	;  0x1c42
    1c36:	80 91 09 04 	lds	r24, 0x0409
    1c3a:	90 91 0a 04 	lds	r25, 0x040A
    1c3e:	01 96       	adiw	r24, 0x01	; 1
    1c40:	07 c0       	rjmp	.+14     	;  0x1c50
    1c42:	33 23       	and	r19, r19
    1c44:	d9 f1       	breq	.+118    	;  0x1cbc
    1c46:	80 91 09 04 	lds	r24, 0x0409
    1c4a:	90 91 0a 04 	lds	r25, 0x040A
    1c4e:	01 97       	sbiw	r24, 0x01	; 1
    1c50:	90 93 0a 04 	sts	0x040A, r25
    1c54:	80 93 09 04 	sts	0x0409, r24
    1c58:	31 11       	cpse	r19, r1
    1c5a:	02 c0       	rjmp	.+4      	;  0x1c60
    1c5c:	22 23       	and	r18, r18
    1c5e:	71 f1       	breq	.+92     	;  0x1cbc
    1c60:	80 91 09 04 	lds	r24, 0x0409
    1c64:	90 91 0a 04 	lds	r25, 0x040A
    1c68:	9c 01       	movw	r18, r24
    1c6a:	97 ff       	sbrs	r25, 7
    1c6c:	04 c0       	rjmp	.+8      	;  0x1c76
    1c6e:	22 27       	eor	r18, r18
    1c70:	33 27       	eor	r19, r19
    1c72:	28 1b       	sub	r18, r24
    1c74:	39 0b       	sbc	r19, r25
    1c76:	97 fd       	sbrc	r25, 7
    1c78:	03 c0       	rjmp	.+6      	;  0x1c80
    1c7a:	8d e6       	ldi	r24, 0x6D	; 109
    1c7c:	92 e0       	ldi	r25, 0x02	; 2
    1c7e:	02 c0       	rjmp	.+4      	;  0x1c84
    1c80:	80 e7       	ldi	r24, 0x70	; 112
    1c82:	92 e0       	ldi	r25, 0x02	; 2
    1c84:	3f 93       	push	r19
    1c86:	2f 93       	push	r18
    1c88:	9f 93       	push	r25
    1c8a:	8f 93       	push	r24
    1c8c:	85 e7       	ldi	r24, 0x75	; 117
    1c8e:	92 e0       	ldi	r25, 0x02	; 2
    1c90:	9f 93       	push	r25
    1c92:	8f 93       	push	r24
    1c94:	8b e0       	ldi	r24, 0x0B	; 11
    1c96:	94 e0       	ldi	r25, 0x04	; 4
    1c98:	9f 93       	push	r25
    1c9a:	8f 93       	push	r24
    1c9c:	0e 94 e2 16 	call	0x2dc4	;  0x2dc4
    1ca0:	6b e0       	ldi	r22, 0x0B	; 11
    1ca2:	74 e0       	ldi	r23, 0x04	; 4
    1ca4:	84 e6       	ldi	r24, 0x64	; 100
    1ca6:	93 e0       	ldi	r25, 0x03	; 3
    1ca8:	0e 94 90 09 	call	0x1320	;  0x1320
    1cac:	8d b7       	in	r24, 0x3d	; 61
    1cae:	9e b7       	in	r25, 0x3e	; 62
    1cb0:	08 96       	adiw	r24, 0x08	; 8
    1cb2:	0f b6       	in	r0, 0x3f	; 63
    1cb4:	f8 94       	cli
    1cb6:	9e bf       	out	0x3e, r25	; 62
    1cb8:	0f be       	out	0x3f, r0	; 63
    1cba:	8d bf       	out	0x3d, r24	; 61
    1cbc:	80 91 09 01 	lds	r24, 0x0109
    1cc0:	90 91 0a 01 	lds	r25, 0x010A
    1cc4:	18 16       	cp	r1, r24
    1cc6:	19 06       	cpc	r1, r25
    1cc8:	0c f0       	brlt	.+2      	;  0x1ccc
    1cca:	d4 c0       	rjmp	.+424    	;  0x1e74
    1ccc:	84 e6       	ldi	r24, 0x64	; 100
    1cce:	93 e0       	ldi	r25, 0x03	; 3
    1cd0:	0e 94 8e 08 	call	0x111c	;  0x111c
    1cd4:	81 11       	cpse	r24, r1
    1cd6:	ce c0       	rjmp	.+412    	;  0x1e74
    1cd8:	60 e0       	ldi	r22, 0x00	; 0
    1cda:	87 e0       	ldi	r24, 0x07	; 7
    1cdc:	0e 94 41 11 	call	0x2282	;  0x2282
    1ce0:	64 e6       	ldi	r22, 0x64	; 100
    1ce2:	70 e0       	ldi	r23, 0x00	; 0
    1ce4:	80 e0       	ldi	r24, 0x00	; 0
    1ce6:	90 e0       	ldi	r25, 0x00	; 0
    1ce8:	0e 94 58 10 	call	0x20b0	;  0x20b0
    1cec:	84 e6       	ldi	r24, 0x64	; 100
    1cee:	93 e0       	ldi	r25, 0x03	; 3
    1cf0:	0e 94 a3 09 	call	0x1346	;  0x1346
    1cf4:	80 91 09 01 	lds	r24, 0x0109
    1cf8:	90 91 0a 01 	lds	r25, 0x010A
    1cfc:	97 fd       	sbrc	r25, 7
    1cfe:	05 c0       	rjmp	.+10     	;  0x1d0a
    1d00:	01 97       	sbiw	r24, 0x01	; 1
    1d02:	90 93 0a 01 	sts	0x010A, r25
    1d06:	80 93 09 01 	sts	0x0109, r24
    1d0a:	a8 95       	wdr
    1d0c:	83 e0       	ldi	r24, 0x03	; 3
    1d0e:	0e 94 95 11 	call	0x232a	;  0x232a
    1d12:	89 2b       	or	r24, r25
    1d14:	09 f0       	breq	.+2      	;  0x1d18
    1d16:	7e c0       	rjmp	.+252    	;  0x1e14
    1d18:	0e 94 a0 0b 	call	0x1740	;  0x1740
    1d1c:	a8 95       	wdr
    1d1e:	68 ec       	ldi	r22, 0xC8	; 200
    1d20:	70 e0       	ldi	r23, 0x00	; 0
    1d22:	81 e9       	ldi	r24, 0x91	; 145
    1d24:	94 e0       	ldi	r25, 0x04	; 4
    1d26:	0e 94 4d 07 	call	0xe9a	;  0xe9a
    1d2a:	81 e9       	ldi	r24, 0x91	; 145
    1d2c:	94 e0       	ldi	r25, 0x04	; 4
    1d2e:	0e 94 be 06 	call	0xd7c	;  0xd7c
    1d32:	0e 94 61 05 	call	0xac2	;  0xac2
    1d36:	81 11       	cpse	r24, r1
    1d38:	10 92 05 04 	sts	0x0405, r1
    1d3c:	80 91 09 04 	lds	r24, 0x0409
    1d40:	90 91 0a 04 	lds	r25, 0x040A
    1d44:	00 97       	sbiw	r24, 0x00	; 0
    1d46:	69 f0       	breq	.+26     	;  0x1d62
    1d48:	0e 94 de 0b 	call	0x17bc	;  0x17bc
    1d4c:	a8 95       	wdr
    1d4e:	10 92 0a 04 	sts	0x040A, r1
    1d52:	10 92 09 04 	sts	0x0409, r1
    1d56:	65 e0       	ldi	r22, 0x05	; 5
    1d58:	70 e0       	ldi	r23, 0x00	; 0
    1d5a:	80 e0       	ldi	r24, 0x00	; 0
    1d5c:	90 e0       	ldi	r25, 0x00	; 0
    1d5e:	0e 94 58 10 	call	0x20b0	;  0x20b0
    1d62:	0e 94 04 0c 	call	0x1808	;  0x1808
    1d66:	8c 01       	movw	r16, r24
    1d68:	8b e5       	ldi	r24, 0x5B	; 91
    1d6a:	93 e0       	ldi	r25, 0x03	; 3
    1d6c:	0e 94 e0 04 	call	0x9c0	;  0x9c0
    1d70:	6b 01       	movw	r12, r22
    1d72:	7c 01       	movw	r14, r24
    1d74:	8b e5       	ldi	r24, 0x5B	; 91
    1d76:	93 e0       	ldi	r25, 0x03	; 3
    1d78:	0e 94 cb 04 	call	0x996	;  0x996
    1d7c:	4b 01       	movw	r8, r22
    1d7e:	5c 01       	movw	r10, r24
    1d80:	a8 95       	wdr
    1d82:	20 e0       	ldi	r18, 0x00	; 0
    1d84:	30 e0       	ldi	r19, 0x00	; 0
    1d86:	44 e3       	ldi	r20, 0x34	; 52
    1d88:	52 ec       	ldi	r21, 0xC2	; 194
    1d8a:	c7 01       	movw	r24, r14
    1d8c:	b6 01       	movw	r22, r12
    1d8e:	0e 94 db 15 	call	0x2bb6	;  0x2bb6
    1d92:	18 16       	cp	r1, r24
    1d94:	94 f4       	brge	.+36     	;  0x1dba
    1d96:	20 e0       	ldi	r18, 0x00	; 0
    1d98:	30 e0       	ldi	r19, 0x00	; 0
    1d9a:	40 e8       	ldi	r20, 0x80	; 128
    1d9c:	5f eb       	ldi	r21, 0xBF	; 191
    1d9e:	c5 01       	movw	r24, r10
    1da0:	b4 01       	movw	r22, r8
    1da2:	0e 94 db 15 	call	0x2bb6	;  0x2bb6
    1da6:	18 16       	cp	r1, r24
    1da8:	44 f4       	brge	.+16     	;  0x1dba
    1daa:	a5 01       	movw	r20, r10
    1dac:	94 01       	movw	r18, r8
    1dae:	c7 01       	movw	r24, r14
    1db0:	b6 01       	movw	r22, r12
    1db2:	0e 94 bd 0a 	call	0x157a	;  0x157a
    1db6:	a8 95       	wdr
    1db8:	05 c0       	rjmp	.+10     	;  0x1dc4
    1dba:	80 91 60 04 	lds	r24, 0x0460
    1dbe:	8f 5f       	subi	r24, 0xFF	; 255
    1dc0:	80 93 60 04 	sts	0x0460, r24
    1dc4:	65 e0       	ldi	r22, 0x05	; 5
    1dc6:	70 e0       	ldi	r23, 0x00	; 0
    1dc8:	80 e0       	ldi	r24, 0x00	; 0
    1dca:	90 e0       	ldi	r25, 0x00	; 0
    1dcc:	0e 94 58 10 	call	0x20b0	;  0x20b0
    1dd0:	0e 94 c4 0c 	call	0x1988	;  0x1988
    1dd4:	a8 95       	wdr
    1dd6:	88 23       	and	r24, r24
    1dd8:	e9 f0       	breq	.+58     	;  0x1e14
    1dda:	65 e0       	ldi	r22, 0x05	; 5
    1ddc:	70 e0       	ldi	r23, 0x00	; 0
    1dde:	80 e0       	ldi	r24, 0x00	; 0
    1de0:	90 e0       	ldi	r25, 0x00	; 0
    1de2:	0e 94 58 10 	call	0x20b0	;  0x20b0
    1de6:	8c e7       	ldi	r24, 0x7C	; 124
    1de8:	94 e0       	ldi	r25, 0x04	; 4
    1dea:	0e 94 21 04 	call	0x842	;  0x842
    1dee:	80 93 06 04 	sts	0x0406, r24
    1df2:	a8 95       	wdr
    1df4:	65 e0       	ldi	r22, 0x05	; 5
    1df6:	70 e0       	ldi	r23, 0x00	; 0
    1df8:	80 e0       	ldi	r24, 0x00	; 0
    1dfa:	90 e0       	ldi	r25, 0x00	; 0
    1dfc:	0e 94 58 10 	call	0x20b0	;  0x20b0
    1e00:	8c e7       	ldi	r24, 0x7C	; 124
    1e02:	94 e0       	ldi	r25, 0x04	; 4
    1e04:	0e 94 99 03 	call	0x732	;  0x732
    1e08:	65 e0       	ldi	r22, 0x05	; 5
    1e0a:	70 e0       	ldi	r23, 0x00	; 0
    1e0c:	80 e0       	ldi	r24, 0x00	; 0
    1e0e:	90 e0       	ldi	r25, 0x00	; 0
    1e10:	0e 94 58 10 	call	0x20b0	;  0x20b0
    1e14:	10 92 5d 04 	sts	0x045D, r1
    1e18:	10 92 5c 04 	sts	0x045C, r1
    1e1c:	10 92 5b 04 	sts	0x045B, r1
    1e20:	a8 95       	wdr
    1e22:	88 e1       	ldi	r24, 0x18	; 24
    1e24:	0f b6       	in	r0, 0x3f	; 63
    1e26:	f8 94       	cli
    1e28:	80 93 60 00 	sts	0x0060, r24
    1e2c:	10 92 60 00 	sts	0x0060, r1
    1e30:	0f be       	out	0x3f, r0	; 63
    1e32:	42 e0       	ldi	r20, 0x02	; 2
    1e34:	50 e0       	ldi	r21, 0x00	; 0
    1e36:	62 e4       	ldi	r22, 0x42	; 66
    1e38:	7c e0       	ldi	r23, 0x0C	; 12
    1e3a:	80 e0       	ldi	r24, 0x00	; 0
    1e3c:	0e 94 66 0f 	call	0x1ecc	;  0x1ecc
    1e40:	42 e0       	ldi	r20, 0x02	; 2
    1e42:	50 e0       	ldi	r21, 0x00	; 0
    1e44:	60 e4       	ldi	r22, 0x40	; 64
    1e46:	7a e0       	ldi	r23, 0x0A	; 10
    1e48:	81 e0       	ldi	r24, 0x01	; 1
    1e4a:	0e 94 66 0f 	call	0x1ecc	;  0x1ecc
    1e4e:	83 b7       	in	r24, 0x33	; 51
    1e50:	81 7f       	andi	r24, 0xF1	; 241
    1e52:	84 60       	ori	r24, 0x04	; 4
    1e54:	83 bf       	out	0x33, r24	; 51
    1e56:	83 b7       	in	r24, 0x33	; 51
    1e58:	81 60       	ori	r24, 0x01	; 1
    1e5a:	83 bf       	out	0x33, r24	; 51
    1e5c:	88 95       	sleep
    1e5e:	1f 91       	pop	r17
    1e60:	0f 91       	pop	r16
    1e62:	ff 90       	pop	r15
    1e64:	ef 90       	pop	r14
    1e66:	df 90       	pop	r13
    1e68:	cf 90       	pop	r12
    1e6a:	bf 90       	pop	r11
    1e6c:	af 90       	pop	r10
    1e6e:	9f 90       	pop	r9
    1e70:	8f 90       	pop	r8
    1e72:	08 95       	ret
    1e74:	80 91 09 01 	lds	r24, 0x0109
    1e78:	90 91 0a 01 	lds	r25, 0x010A
    1e7c:	89 2b       	or	r24, r25
    1e7e:	09 f0       	breq	.+2      	;  0x1e82
    1e80:	39 cf       	rjmp	.-398    	;  0x1cf4
    1e82:	84 e6       	ldi	r24, 0x64	; 100
    1e84:	93 e0       	ldi	r25, 0x03	; 3
    1e86:	0e 94 6f 08 	call	0x10de	;  0x10de
    1e8a:	61 e0       	ldi	r22, 0x01	; 1
    1e8c:	87 e0       	ldi	r24, 0x07	; 7
    1e8e:	0e 94 41 11 	call	0x2282	;  0x2282
    1e92:	30 cf       	rjmp	.-416    	;  0x1cf4
    1e94:	0f 93       	push	r16
    1e96:	1f 93       	push	r17
    1e98:	81 e9       	ldi	r24, 0x91	; 145
    1e9a:	94 e0       	ldi	r25, 0x04	; 4
    1e9c:	0e 94 6e 06 	call	0xcdc	;  0xcdc
    1ea0:	61 e9       	ldi	r22, 0x91	; 145
    1ea2:	74 e0       	ldi	r23, 0x04	; 4
    1ea4:	8c e7       	ldi	r24, 0x7C	; 124
    1ea6:	94 e0       	ldi	r25, 0x04	; 4
    1ea8:	0e 94 4b 03 	call	0x696	;  0x696
    1eac:	00 e0       	ldi	r16, 0x00	; 0
    1eae:	10 e0       	ldi	r17, 0x00	; 0
    1eb0:	98 01       	movw	r18, r16
    1eb2:	40 e0       	ldi	r20, 0x00	; 0
    1eb4:	50 e0       	ldi	r21, 0x00	; 0
    1eb6:	ba 01       	movw	r22, r20
    1eb8:	84 e7       	ldi	r24, 0x74	; 116
    1eba:	94 e0       	ldi	r25, 0x04	; 4
    1ebc:	0e 94 7c 07 	call	0xef8	;  0xef8
    1ec0:	81 e6       	ldi	r24, 0x61	; 97
    1ec2:	94 e0       	ldi	r25, 0x04	; 4
    1ec4:	1f 91       	pop	r17
    1ec6:	0f 91       	pop	r16
    1ec8:	0c 94 8d 05 	jmp	0xb1a	;  0xb1a
    1ecc:	82 30       	cpi	r24, 0x02	; 2
    1ece:	00 f5       	brcc	.+64     	;  0x1f10
    1ed0:	e8 2f       	mov	r30, r24
    1ed2:	f0 e0       	ldi	r31, 0x00	; 0
    1ed4:	ee 0f       	add	r30, r30
    1ed6:	ff 1f       	adc	r31, r31
    1ed8:	ef 55       	subi	r30, 0x5F	; 95
    1eda:	f9 4f       	sbci	r31, 0xF9	; 249
    1edc:	71 83       	std	Z+1, r23	; 0x01
    1ede:	60 83       	st	Z, r22
    1ee0:	88 23       	and	r24, r24
    1ee2:	19 f0       	breq	.+6      	;  0x1eea
    1ee4:	81 30       	cpi	r24, 0x01	; 1
    1ee6:	a1 f4       	brne	.+40     	;  0x1f10
    1ee8:	08 c0       	rjmp	.+16     	;  0x1efa
    1eea:	80 91 69 00 	lds	r24, 0x0069
    1eee:	8c 7f       	andi	r24, 0xFC	; 252
    1ef0:	84 2b       	or	r24, r20
    1ef2:	80 93 69 00 	sts	0x0069, r24
    1ef6:	e8 9a       	sbi	0x1d, 0	; 29
    1ef8:	08 95       	ret
    1efa:	80 91 69 00 	lds	r24, 0x0069
    1efe:	44 0f       	add	r20, r20
    1f00:	55 1f       	adc	r21, r21
    1f02:	44 0f       	add	r20, r20
    1f04:	55 1f       	adc	r21, r21
    1f06:	83 7f       	andi	r24, 0xF3	; 243
    1f08:	84 2b       	or	r24, r20
    1f0a:	80 93 69 00 	sts	0x0069, r24
    1f0e:	e9 9a       	sbi	0x1d, 1	; 29
    1f10:	08 95       	ret
    1f12:	82 30       	cpi	r24, 0x02	; 2
    1f14:	80 f4       	brcc	.+32     	;  0x1f36
    1f16:	88 23       	and	r24, r24
    1f18:	19 f0       	breq	.+6      	;  0x1f20
    1f1a:	81 30       	cpi	r24, 0x01	; 1
    1f1c:	21 f4       	brne	.+8      	;  0x1f26
    1f1e:	02 c0       	rjmp	.+4      	;  0x1f24
    1f20:	e8 98       	cbi	0x1d, 0	; 29
    1f22:	01 c0       	rjmp	.+2      	;  0x1f26
    1f24:	e9 98       	cbi	0x1d, 1	; 29
    1f26:	e8 2f       	mov	r30, r24
    1f28:	f0 e0       	ldi	r31, 0x00	; 0
    1f2a:	ee 0f       	add	r30, r30
    1f2c:	ff 1f       	adc	r31, r31
    1f2e:	ef 55       	subi	r30, 0x5F	; 95
    1f30:	f9 4f       	sbci	r31, 0xF9	; 249
    1f32:	11 82       	std	Z+1, r1	; 0x01
    1f34:	10 82       	st	Z, r1
    1f36:	08 95       	ret
    1f38:	1f 92       	push	r1
    1f3a:	0f 92       	push	r0
    1f3c:	0f b6       	in	r0, 0x3f	; 63
    1f3e:	0f 92       	push	r0
    1f40:	11 24       	eor	r1, r1
    1f42:	2f 93       	push	r18
    1f44:	3f 93       	push	r19
    1f46:	4f 93       	push	r20
    1f48:	5f 93       	push	r21
    1f4a:	6f 93       	push	r22
    1f4c:	7f 93       	push	r23
    1f4e:	8f 93       	push	r24
    1f50:	9f 93       	push	r25
    1f52:	af 93       	push	r26
    1f54:	bf 93       	push	r27
    1f56:	ef 93       	push	r30
    1f58:	ff 93       	push	r31
    1f5a:	80 91 a1 06 	lds	r24, 0x06A1
    1f5e:	90 91 a2 06 	lds	r25, 0x06A2
    1f62:	89 2b       	or	r24, r25
    1f64:	29 f0       	breq	.+10     	;  0x1f70
    1f66:	e0 91 a1 06 	lds	r30, 0x06A1
    1f6a:	f0 91 a2 06 	lds	r31, 0x06A2
    1f6e:	09 95       	icall
    1f70:	ff 91       	pop	r31
    1f72:	ef 91       	pop	r30
    1f74:	bf 91       	pop	r27
    1f76:	af 91       	pop	r26
    1f78:	9f 91       	pop	r25
    1f7a:	8f 91       	pop	r24
    1f7c:	7f 91       	pop	r23
    1f7e:	6f 91       	pop	r22
    1f80:	5f 91       	pop	r21
    1f82:	4f 91       	pop	r20
    1f84:	3f 91       	pop	r19
    1f86:	2f 91       	pop	r18
    1f88:	0f 90       	pop	r0
    1f8a:	0f be       	out	0x3f, r0	; 63
    1f8c:	0f 90       	pop	r0
    1f8e:	1f 90       	pop	r1
    1f90:	18 95       	reti
    1f92:	1f 92       	push	r1
    1f94:	0f 92       	push	r0
    1f96:	0f b6       	in	r0, 0x3f	; 63
    1f98:	0f 92       	push	r0
    1f9a:	11 24       	eor	r1, r1
    1f9c:	2f 93       	push	r18
    1f9e:	3f 93       	push	r19
    1fa0:	4f 93       	push	r20
    1fa2:	5f 93       	push	r21
    1fa4:	6f 93       	push	r22
    1fa6:	7f 93       	push	r23
    1fa8:	8f 93       	push	r24
    1faa:	9f 93       	push	r25
    1fac:	af 93       	push	r26
    1fae:	bf 93       	push	r27
    1fb0:	ef 93       	push	r30
    1fb2:	ff 93       	push	r31
    1fb4:	80 91 a3 06 	lds	r24, 0x06A3
    1fb8:	90 91 a4 06 	lds	r25, 0x06A4
    1fbc:	89 2b       	or	r24, r25
    1fbe:	29 f0       	breq	.+10     	;  0x1fca
    1fc0:	e0 91 a3 06 	lds	r30, 0x06A3
    1fc4:	f0 91 a4 06 	lds	r31, 0x06A4
    1fc8:	09 95       	icall
    1fca:	ff 91       	pop	r31
    1fcc:	ef 91       	pop	r30
    1fce:	bf 91       	pop	r27
    1fd0:	af 91       	pop	r26
    1fd2:	9f 91       	pop	r25
    1fd4:	8f 91       	pop	r24
    1fd6:	7f 91       	pop	r23
    1fd8:	6f 91       	pop	r22
    1fda:	5f 91       	pop	r21
    1fdc:	4f 91       	pop	r20
    1fde:	3f 91       	pop	r19
    1fe0:	2f 91       	pop	r18
    1fe2:	0f 90       	pop	r0
    1fe4:	0f be       	out	0x3f, r0	; 63
    1fe6:	0f 90       	pop	r0
    1fe8:	1f 90       	pop	r1
    1fea:	18 95       	reti
    1fec:	1f 92       	push	r1
    1fee:	0f 92       	push	r0
    1ff0:	0f b6       	in	r0, 0x3f	; 63
    1ff2:	0f 92       	push	r0
    1ff4:	11 24       	eor	r1, r1
    1ff6:	2f 93       	push	r18
    1ff8:	3f 93       	push	r19
    1ffa:	4f 93       	push	r20
    1ffc:	5f 93       	push	r21
    1ffe:	6f 93       	push	r22
    2000:	7f 93       	push	r23
    2002:	8f 93       	push	r24
    2004:	9f 93       	push	r25
    2006:	af 93       	push	r26
    2008:	bf 93       	push	r27
    200a:	20 91 a9 06 	lds	r18, 0x06A9
    200e:	30 91 aa 06 	lds	r19, 0x06AA
    2012:	40 91 ab 06 	lds	r20, 0x06AB
    2016:	50 91 ac 06 	lds	r21, 0x06AC
    201a:	70 91 ad 06 	lds	r23, 0x06AD
    201e:	da 01       	movw	r26, r20
    2020:	c9 01       	movw	r24, r18
    2022:	02 96       	adiw	r24, 0x02	; 2
    2024:	a1 1d       	adc	r26, r1
    2026:	b1 1d       	adc	r27, r1
    2028:	67 2f       	mov	r22, r23
    202a:	6a 5f       	subi	r22, 0xFA	; 250
    202c:	6d 37       	cpi	r22, 0x7D	; 125
    202e:	30 f0       	brcs	.+12     	;  0x203c
    2030:	6d 57       	subi	r22, 0x7D	; 125
    2032:	da 01       	movw	r26, r20
    2034:	c9 01       	movw	r24, r18
    2036:	03 96       	adiw	r24, 0x03	; 3
    2038:	a1 1d       	adc	r26, r1
    203a:	b1 1d       	adc	r27, r1
    203c:	60 93 ad 06 	sts	0x06AD, r22
    2040:	80 93 a9 06 	sts	0x06A9, r24
    2044:	90 93 aa 06 	sts	0x06AA, r25
    2048:	a0 93 ab 06 	sts	0x06AB, r26
    204c:	b0 93 ac 06 	sts	0x06AC, r27
    2050:	80 91 a5 06 	lds	r24, 0x06A5
    2054:	90 91 a6 06 	lds	r25, 0x06A6
    2058:	a0 91 a7 06 	lds	r26, 0x06A7
    205c:	b0 91 a8 06 	lds	r27, 0x06A8
    2060:	01 96       	adiw	r24, 0x01	; 1
    2062:	a1 1d       	adc	r26, r1
    2064:	b1 1d       	adc	r27, r1
    2066:	80 93 a5 06 	sts	0x06A5, r24
    206a:	90 93 a6 06 	sts	0x06A6, r25
    206e:	a0 93 a7 06 	sts	0x06A7, r26
    2072:	b0 93 a8 06 	sts	0x06A8, r27
    2076:	bf 91       	pop	r27
    2078:	af 91       	pop	r26
    207a:	9f 91       	pop	r25
    207c:	8f 91       	pop	r24
    207e:	7f 91       	pop	r23
    2080:	6f 91       	pop	r22
    2082:	5f 91       	pop	r21
    2084:	4f 91       	pop	r20
    2086:	3f 91       	pop	r19
    2088:	2f 91       	pop	r18
    208a:	0f 90       	pop	r0
    208c:	0f be       	out	0x3f, r0	; 63
    208e:	0f 90       	pop	r0
    2090:	1f 90       	pop	r1
    2092:	18 95       	reti
    2094:	8f b7       	in	r24, 0x3f	; 63
    2096:	f8 94       	cli
    2098:	20 91 a9 06 	lds	r18, 0x06A9
    209c:	30 91 aa 06 	lds	r19, 0x06AA
    20a0:	40 91 ab 06 	lds	r20, 0x06AB
    20a4:	50 91 ac 06 	lds	r21, 0x06AC
    20a8:	8f bf       	out	0x3f, r24	; 63
    20aa:	b9 01       	movw	r22, r18
    20ac:	ca 01       	movw	r24, r20
    20ae:	08 95       	ret
    20b0:	9b 01       	movw	r18, r22
    20b2:	ac 01       	movw	r20, r24
    20b4:	7f b7       	in	r23, 0x3f	; 63
    20b6:	f8 94       	cli
    20b8:	80 91 a5 06 	lds	r24, 0x06A5
    20bc:	90 91 a6 06 	lds	r25, 0x06A6
    20c0:	a0 91 a7 06 	lds	r26, 0x06A7
    20c4:	b0 91 a8 06 	lds	r27, 0x06A8
    20c8:	66 b5       	in	r22, 0x26	; 38
    20ca:	a8 9b       	sbis	0x15, 0	; 21
    20cc:	05 c0       	rjmp	.+10     	;  0x20d8
    20ce:	6f 3f       	cpi	r22, 0xFF	; 255
    20d0:	19 f0       	breq	.+6      	;  0x20d8
    20d2:	01 96       	adiw	r24, 0x01	; 1
    20d4:	a1 1d       	adc	r26, r1
    20d6:	b1 1d       	adc	r27, r1
    20d8:	7f bf       	out	0x3f, r23	; 63
    20da:	ba 2f       	mov	r27, r26
    20dc:	a9 2f       	mov	r26, r25
    20de:	98 2f       	mov	r25, r24
    20e0:	88 27       	eor	r24, r24
    20e2:	86 0f       	add	r24, r22
    20e4:	91 1d       	adc	r25, r1
    20e6:	a1 1d       	adc	r26, r1
    20e8:	b1 1d       	adc	r27, r1
    20ea:	63 e0       	ldi	r22, 0x03	; 3
    20ec:	88 0f       	add	r24, r24
    20ee:	99 1f       	adc	r25, r25
    20f0:	aa 1f       	adc	r26, r26
    20f2:	bb 1f       	adc	r27, r27
    20f4:	6a 95       	dec	r22
    20f6:	d1 f7       	brne	.-12     	;  0x20ec
    20f8:	bc 01       	movw	r22, r24
    20fa:	2d c0       	rjmp	.+90     	;  0x2156
    20fc:	ff b7       	in	r31, 0x3f	; 63
    20fe:	f8 94       	cli
    2100:	80 91 a5 06 	lds	r24, 0x06A5
    2104:	90 91 a6 06 	lds	r25, 0x06A6
    2108:	a0 91 a7 06 	lds	r26, 0x06A7
    210c:	b0 91 a8 06 	lds	r27, 0x06A8
    2110:	e6 b5       	in	r30, 0x26	; 38
    2112:	a8 9b       	sbis	0x15, 0	; 21
    2114:	05 c0       	rjmp	.+10     	;  0x2120
    2116:	ef 3f       	cpi	r30, 0xFF	; 255
    2118:	19 f0       	breq	.+6      	;  0x2120
    211a:	01 96       	adiw	r24, 0x01	; 1
    211c:	a1 1d       	adc	r26, r1
    211e:	b1 1d       	adc	r27, r1
    2120:	ff bf       	out	0x3f, r31	; 63
    2122:	ba 2f       	mov	r27, r26
    2124:	a9 2f       	mov	r26, r25
    2126:	98 2f       	mov	r25, r24
    2128:	88 27       	eor	r24, r24
    212a:	8e 0f       	add	r24, r30
    212c:	91 1d       	adc	r25, r1
    212e:	a1 1d       	adc	r26, r1
    2130:	b1 1d       	adc	r27, r1
    2132:	e3 e0       	ldi	r30, 0x03	; 3
    2134:	88 0f       	add	r24, r24
    2136:	99 1f       	adc	r25, r25
    2138:	aa 1f       	adc	r26, r26
    213a:	bb 1f       	adc	r27, r27
    213c:	ea 95       	dec	r30
    213e:	d1 f7       	brne	.-12     	;  0x2134
    2140:	86 1b       	sub	r24, r22
    2142:	97 0b       	sbc	r25, r23
    2144:	88 5e       	subi	r24, 0xE8	; 232
    2146:	93 40       	sbci	r25, 0x03	; 3
    2148:	c8 f2       	brcs	.-78     	;  0x20fc
    214a:	21 50       	subi	r18, 0x01	; 1
    214c:	30 40       	sbci	r19, 0x00	; 0
    214e:	40 40       	sbci	r20, 0x00	; 0
    2150:	50 40       	sbci	r21, 0x00	; 0
    2152:	68 51       	subi	r22, 0x18	; 24
    2154:	7c 4f       	sbci	r23, 0xFC	; 252
    2156:	21 15       	cp	r18, r1
    2158:	31 05       	cpc	r19, r1
    215a:	41 05       	cpc	r20, r1
    215c:	51 05       	cpc	r21, r1
    215e:	71 f6       	brne	.-100    	;  0x20fc
    2160:	08 95       	ret
    2162:	01 97       	sbiw	r24, 0x01	; 1
    2164:	39 f0       	breq	.+14     	;  0x2174
    2166:	01 97       	sbiw	r24, 0x01	; 1
    2168:	29 f0       	breq	.+10     	;  0x2174
    216a:	88 0f       	add	r24, r24
    216c:	99 1f       	adc	r25, r25
    216e:	01 97       	sbiw	r24, 0x01	; 1
    2170:	01 97       	sbiw	r24, 0x01	; 1
    2172:	f1 f7       	brne	.-4      	;  0x2170
    2174:	08 95       	ret
    2176:	78 94       	sei
    2178:	84 b5       	in	r24, 0x24	; 36
    217a:	82 60       	ori	r24, 0x02	; 2
    217c:	84 bd       	out	0x24, r24	; 36
    217e:	84 b5       	in	r24, 0x24	; 36
    2180:	81 60       	ori	r24, 0x01	; 1
    2182:	84 bd       	out	0x24, r24	; 36
    2184:	85 b5       	in	r24, 0x25	; 37
    2186:	82 60       	ori	r24, 0x02	; 2
    2188:	85 bd       	out	0x25, r24	; 37
    218a:	85 b5       	in	r24, 0x25	; 37
    218c:	81 60       	ori	r24, 0x01	; 1
    218e:	85 bd       	out	0x25, r24	; 37
    2190:	ee e6       	ldi	r30, 0x6E	; 110
    2192:	f0 e0       	ldi	r31, 0x00	; 0
    2194:	80 81       	ld	r24, Z
    2196:	81 60       	ori	r24, 0x01	; 1
    2198:	80 83       	st	Z, r24
    219a:	e1 e8       	ldi	r30, 0x81	; 129
    219c:	f0 e0       	ldi	r31, 0x00	; 0
    219e:	10 82       	st	Z, r1
    21a0:	80 81       	ld	r24, Z
    21a2:	82 60       	ori	r24, 0x02	; 2
    21a4:	80 83       	st	Z, r24
    21a6:	80 81       	ld	r24, Z
    21a8:	81 60       	ori	r24, 0x01	; 1
    21aa:	80 83       	st	Z, r24
    21ac:	e0 e8       	ldi	r30, 0x80	; 128
    21ae:	f0 e0       	ldi	r31, 0x00	; 0
    21b0:	80 81       	ld	r24, Z
    21b2:	81 60       	ori	r24, 0x01	; 1
    21b4:	80 83       	st	Z, r24
    21b6:	e1 eb       	ldi	r30, 0xB1	; 177
    21b8:	f0 e0       	ldi	r31, 0x00	; 0
    21ba:	80 81       	ld	r24, Z
    21bc:	84 60       	ori	r24, 0x04	; 4
    21be:	80 83       	st	Z, r24
    21c0:	e0 eb       	ldi	r30, 0xB0	; 176
    21c2:	f0 e0       	ldi	r31, 0x00	; 0
    21c4:	80 81       	ld	r24, Z
    21c6:	81 60       	ori	r24, 0x01	; 1
    21c8:	80 83       	st	Z, r24
    21ca:	ea e7       	ldi	r30, 0x7A	; 122
    21cc:	f0 e0       	ldi	r31, 0x00	; 0
    21ce:	80 81       	ld	r24, Z
    21d0:	84 60       	ori	r24, 0x04	; 4
    21d2:	80 83       	st	Z, r24
    21d4:	80 81       	ld	r24, Z
    21d6:	82 60       	ori	r24, 0x02	; 2
    21d8:	80 83       	st	Z, r24
    21da:	80 81       	ld	r24, Z
    21dc:	81 60       	ori	r24, 0x01	; 1
    21de:	80 83       	st	Z, r24
    21e0:	80 81       	ld	r24, Z
    21e2:	80 68       	ori	r24, 0x80	; 128
    21e4:	80 83       	st	Z, r24
    21e6:	10 92 c1 00 	sts	0x00C1, r1
    21ea:	08 95       	ret
    21ec:	80 93 0b 01 	sts	0x010B, r24
    21f0:	08 95       	ret
    21f2:	98 2f       	mov	r25, r24
    21f4:	8e 30       	cpi	r24, 0x0E	; 14
    21f6:	08 f0       	brcs	.+2      	;  0x21fa
    21f8:	9e 50       	subi	r25, 0x0E	; 14
    21fa:	97 70       	andi	r25, 0x07	; 7
    21fc:	80 91 0b 01 	lds	r24, 0x010B
    2200:	82 95       	swap	r24
    2202:	88 0f       	add	r24, r24
    2204:	88 0f       	add	r24, r24
    2206:	80 7c       	andi	r24, 0xC0	; 192
    2208:	89 2b       	or	r24, r25
    220a:	80 93 7c 00 	sts	0x007C, r24
    220e:	80 91 7a 00 	lds	r24, 0x007A
    2212:	80 64       	ori	r24, 0x40	; 64
    2214:	80 93 7a 00 	sts	0x007A, r24
    2218:	80 91 7a 00 	lds	r24, 0x007A
    221c:	86 fd       	sbrc	r24, 6
    221e:	fc cf       	rjmp	.-8      	;  0x2218
    2220:	20 91 78 00 	lds	r18, 0x0078
    2224:	40 91 79 00 	lds	r20, 0x0079
    2228:	94 2f       	mov	r25, r20
    222a:	80 e0       	ldi	r24, 0x00	; 0
    222c:	30 e0       	ldi	r19, 0x00	; 0
    222e:	28 2b       	or	r18, r24
    2230:	39 2b       	or	r19, r25
    2232:	c9 01       	movw	r24, r18
    2234:	08 95       	ret
    2236:	48 2f       	mov	r20, r24
    2238:	50 e0       	ldi	r21, 0x00	; 0
    223a:	ca 01       	movw	r24, r20
    223c:	86 56       	subi	r24, 0x66	; 102
    223e:	9f 4f       	sbci	r25, 0xFF	; 255
    2240:	fc 01       	movw	r30, r24
    2242:	24 91       	lpm	r18, Z
    2244:	4a 57       	subi	r20, 0x7A	; 122
    2246:	5f 4f       	sbci	r21, 0xFF	; 255
    2248:	fa 01       	movw	r30, r20
    224a:	84 91       	lpm	r24, Z
    224c:	88 23       	and	r24, r24
    224e:	c1 f0       	breq	.+48     	;  0x2280
    2250:	e8 2f       	mov	r30, r24
    2252:	f0 e0       	ldi	r31, 0x00	; 0
    2254:	ee 0f       	add	r30, r30
    2256:	ff 1f       	adc	r31, r31
    2258:	e8 59       	subi	r30, 0x98	; 152
    225a:	ff 4f       	sbci	r31, 0xFF	; 255
    225c:	a5 91       	lpm	r26, Z+
    225e:	b4 91       	lpm	r27, Z
    2260:	66 23       	and	r22, r22
    2262:	41 f4       	brne	.+16     	;  0x2274
    2264:	9f b7       	in	r25, 0x3f	; 63
    2266:	f8 94       	cli
    2268:	8c 91       	ld	r24, X
    226a:	20 95       	com	r18
    226c:	82 23       	and	r24, r18
    226e:	8c 93       	st	X, r24
    2270:	9f bf       	out	0x3f, r25	; 63
    2272:	08 95       	ret
    2274:	9f b7       	in	r25, 0x3f	; 63
    2276:	f8 94       	cli
    2278:	8c 91       	ld	r24, X
    227a:	82 2b       	or	r24, r18
    227c:	8c 93       	st	X, r24
    227e:	9f bf       	out	0x3f, r25	; 63
    2280:	08 95       	ret
    2282:	48 2f       	mov	r20, r24
    2284:	50 e0       	ldi	r21, 0x00	; 0
    2286:	ca 01       	movw	r24, r20
    2288:	82 55       	subi	r24, 0x52	; 82
    228a:	9f 4f       	sbci	r25, 0xFF	; 255
    228c:	fc 01       	movw	r30, r24
    228e:	24 91       	lpm	r18, Z
    2290:	ca 01       	movw	r24, r20
    2292:	86 56       	subi	r24, 0x66	; 102
    2294:	9f 4f       	sbci	r25, 0xFF	; 255
    2296:	fc 01       	movw	r30, r24
    2298:	94 91       	lpm	r25, Z
    229a:	4a 57       	subi	r20, 0x7A	; 122
    229c:	5f 4f       	sbci	r21, 0xFF	; 255
    229e:	fa 01       	movw	r30, r20
    22a0:	34 91       	lpm	r19, Z
    22a2:	33 23       	and	r19, r19
    22a4:	09 f4       	brne	.+2      	;  0x22a8
    22a6:	40 c0       	rjmp	.+128    	;  0x2328
    22a8:	22 23       	and	r18, r18
    22aa:	51 f1       	breq	.+84     	;  0x2300
    22ac:	23 30       	cpi	r18, 0x03	; 3
    22ae:	71 f0       	breq	.+28     	;  0x22cc
    22b0:	24 30       	cpi	r18, 0x04	; 4
    22b2:	28 f4       	brcc	.+10     	;  0x22be
    22b4:	21 30       	cpi	r18, 0x01	; 1
    22b6:	a1 f0       	breq	.+40     	;  0x22e0
    22b8:	22 30       	cpi	r18, 0x02	; 2
    22ba:	11 f5       	brne	.+68     	;  0x2300
    22bc:	14 c0       	rjmp	.+40     	;  0x22e6
    22be:	26 30       	cpi	r18, 0x06	; 6
    22c0:	b1 f0       	breq	.+44     	;  0x22ee
    22c2:	27 30       	cpi	r18, 0x07	; 7
    22c4:	c1 f0       	breq	.+48     	;  0x22f6
    22c6:	24 30       	cpi	r18, 0x04	; 4
    22c8:	d9 f4       	brne	.+54     	;  0x2300
    22ca:	04 c0       	rjmp	.+8      	;  0x22d4
    22cc:	80 91 80 00 	lds	r24, 0x0080
    22d0:	8f 77       	andi	r24, 0x7F	; 127
    22d2:	03 c0       	rjmp	.+6      	;  0x22da
    22d4:	80 91 80 00 	lds	r24, 0x0080
    22d8:	8f 7d       	andi	r24, 0xDF	; 223
    22da:	80 93 80 00 	sts	0x0080, r24
    22de:	10 c0       	rjmp	.+32     	;  0x2300
    22e0:	84 b5       	in	r24, 0x24	; 36
    22e2:	8f 77       	andi	r24, 0x7F	; 127
    22e4:	02 c0       	rjmp	.+4      	;  0x22ea
    22e6:	84 b5       	in	r24, 0x24	; 36
    22e8:	8f 7d       	andi	r24, 0xDF	; 223
    22ea:	84 bd       	out	0x24, r24	; 36
    22ec:	09 c0       	rjmp	.+18     	;  0x2300
    22ee:	80 91 b0 00 	lds	r24, 0x00B0
    22f2:	8f 77       	andi	r24, 0x7F	; 127
    22f4:	03 c0       	rjmp	.+6      	;  0x22fc
    22f6:	80 91 b0 00 	lds	r24, 0x00B0
    22fa:	8f 7d       	andi	r24, 0xDF	; 223
    22fc:	80 93 b0 00 	sts	0x00B0, r24
    2300:	e3 2f       	mov	r30, r19
    2302:	f0 e0       	ldi	r31, 0x00	; 0
    2304:	ee 0f       	add	r30, r30
    2306:	ff 1f       	adc	r31, r31
    2308:	ee 58       	subi	r30, 0x8E	; 142
    230a:	ff 4f       	sbci	r31, 0xFF	; 255
    230c:	a5 91       	lpm	r26, Z+
    230e:	b4 91       	lpm	r27, Z
    2310:	2f b7       	in	r18, 0x3f	; 63
    2312:	f8 94       	cli
    2314:	66 23       	and	r22, r22
    2316:	21 f4       	brne	.+8      	;  0x2320
    2318:	8c 91       	ld	r24, X
    231a:	90 95       	com	r25
    231c:	89 23       	and	r24, r25
    231e:	02 c0       	rjmp	.+4      	;  0x2324
    2320:	8c 91       	ld	r24, X
    2322:	89 2b       	or	r24, r25
    2324:	8c 93       	st	X, r24
    2326:	2f bf       	out	0x3f, r18	; 63
    2328:	08 95       	ret
    232a:	68 2f       	mov	r22, r24
    232c:	70 e0       	ldi	r23, 0x00	; 0
    232e:	cb 01       	movw	r24, r22
    2330:	82 55       	subi	r24, 0x52	; 82
    2332:	9f 4f       	sbci	r25, 0xFF	; 255
    2334:	fc 01       	movw	r30, r24
    2336:	24 91       	lpm	r18, Z
    2338:	cb 01       	movw	r24, r22
    233a:	86 56       	subi	r24, 0x66	; 102
    233c:	9f 4f       	sbci	r25, 0xFF	; 255
    233e:	fc 01       	movw	r30, r24
    2340:	44 91       	lpm	r20, Z
    2342:	6a 57       	subi	r22, 0x7A	; 122
    2344:	7f 4f       	sbci	r23, 0xFF	; 255
    2346:	fb 01       	movw	r30, r22
    2348:	94 91       	lpm	r25, Z
    234a:	99 23       	and	r25, r25
    234c:	19 f4       	brne	.+6      	;  0x2354
    234e:	20 e0       	ldi	r18, 0x00	; 0
    2350:	30 e0       	ldi	r19, 0x00	; 0
    2352:	3c c0       	rjmp	.+120    	;  0x23cc
    2354:	22 23       	and	r18, r18
    2356:	51 f1       	breq	.+84     	;  0x23ac
    2358:	23 30       	cpi	r18, 0x03	; 3
    235a:	71 f0       	breq	.+28     	;  0x2378
    235c:	24 30       	cpi	r18, 0x04	; 4
    235e:	28 f4       	brcc	.+10     	;  0x236a
    2360:	21 30       	cpi	r18, 0x01	; 1
    2362:	a1 f0       	breq	.+40     	;  0x238c
    2364:	22 30       	cpi	r18, 0x02	; 2
    2366:	11 f5       	brne	.+68     	;  0x23ac
    2368:	14 c0       	rjmp	.+40     	;  0x2392
    236a:	26 30       	cpi	r18, 0x06	; 6
    236c:	b1 f0       	breq	.+44     	;  0x239a
    236e:	27 30       	cpi	r18, 0x07	; 7
    2370:	c1 f0       	breq	.+48     	;  0x23a2
    2372:	24 30       	cpi	r18, 0x04	; 4
    2374:	d9 f4       	brne	.+54     	;  0x23ac
    2376:	04 c0       	rjmp	.+8      	;  0x2380
    2378:	80 91 80 00 	lds	r24, 0x0080
    237c:	8f 77       	andi	r24, 0x7F	; 127
    237e:	03 c0       	rjmp	.+6      	;  0x2386
    2380:	80 91 80 00 	lds	r24, 0x0080
    2384:	8f 7d       	andi	r24, 0xDF	; 223
    2386:	80 93 80 00 	sts	0x0080, r24
    238a:	10 c0       	rjmp	.+32     	;  0x23ac
    238c:	84 b5       	in	r24, 0x24	; 36
    238e:	8f 77       	andi	r24, 0x7F	; 127
    2390:	02 c0       	rjmp	.+4      	;  0x2396
    2392:	84 b5       	in	r24, 0x24	; 36
    2394:	8f 7d       	andi	r24, 0xDF	; 223
    2396:	84 bd       	out	0x24, r24	; 36
    2398:	09 c0       	rjmp	.+18     	;  0x23ac
    239a:	80 91 b0 00 	lds	r24, 0x00B0
    239e:	8f 77       	andi	r24, 0x7F	; 127
    23a0:	03 c0       	rjmp	.+6      	;  0x23a8
    23a2:	80 91 b0 00 	lds	r24, 0x00B0
    23a6:	8f 7d       	andi	r24, 0xDF	; 223
    23a8:	80 93 b0 00 	sts	0x00B0, r24
    23ac:	89 2f       	mov	r24, r25
    23ae:	90 e0       	ldi	r25, 0x00	; 0
    23b0:	88 0f       	add	r24, r24
    23b2:	99 1f       	adc	r25, r25
    23b4:	84 58       	subi	r24, 0x84	; 132
    23b6:	9f 4f       	sbci	r25, 0xFF	; 255
    23b8:	fc 01       	movw	r30, r24
    23ba:	a5 91       	lpm	r26, Z+
    23bc:	b4 91       	lpm	r27, Z
    23be:	8c 91       	ld	r24, X
    23c0:	20 e0       	ldi	r18, 0x00	; 0
    23c2:	30 e0       	ldi	r19, 0x00	; 0
    23c4:	84 23       	and	r24, r20
    23c6:	11 f0       	breq	.+4      	;  0x23cc
    23c8:	21 e0       	ldi	r18, 0x01	; 1
    23ca:	30 e0       	ldi	r19, 0x00	; 0
    23cc:	c9 01       	movw	r24, r18
    23ce:	08 95       	ret
    23d0:	08 95       	ret
    23d2:	1f 92       	push	r1
    23d4:	0f 92       	push	r0
    23d6:	0f b6       	in	r0, 0x3f	; 63
    23d8:	0f 92       	push	r0
    23da:	11 24       	eor	r1, r1
    23dc:	2f 93       	push	r18
    23de:	3f 93       	push	r19
    23e0:	4f 93       	push	r20
    23e2:	8f 93       	push	r24
    23e4:	9f 93       	push	r25
    23e6:	ef 93       	push	r30
    23e8:	ff 93       	push	r31
    23ea:	40 91 c6 00 	lds	r20, 0x00C6
    23ee:	20 91 ee 06 	lds	r18, 0x06EE
    23f2:	30 91 ef 06 	lds	r19, 0x06EF
    23f6:	2f 5f       	subi	r18, 0xFF	; 255
    23f8:	3f 4f       	sbci	r19, 0xFF	; 255
    23fa:	2f 73       	andi	r18, 0x3F	; 63
    23fc:	30 70       	andi	r19, 0x00	; 0
    23fe:	80 91 f0 06 	lds	r24, 0x06F0
    2402:	90 91 f1 06 	lds	r25, 0x06F1
    2406:	28 17       	cp	r18, r24
    2408:	39 07       	cpc	r19, r25
    240a:	59 f0       	breq	.+22     	;  0x2422
    240c:	e0 91 ee 06 	lds	r30, 0x06EE
    2410:	f0 91 ef 06 	lds	r31, 0x06EF
    2414:	e2 55       	subi	r30, 0x52	; 82
    2416:	f9 4f       	sbci	r31, 0xF9	; 249
    2418:	40 83       	st	Z, r20
    241a:	30 93 ef 06 	sts	0x06EF, r19
    241e:	20 93 ee 06 	sts	0x06EE, r18
    2422:	ff 91       	pop	r31
    2424:	ef 91       	pop	r30
    2426:	9f 91       	pop	r25
    2428:	8f 91       	pop	r24
    242a:	4f 91       	pop	r20
    242c:	3f 91       	pop	r19
    242e:	2f 91       	pop	r18
    2430:	0f 90       	pop	r0
    2432:	0f be       	out	0x3f, r0	; 63
    2434:	0f 90       	pop	r0
    2436:	1f 90       	pop	r1
    2438:	18 95       	reti
    243a:	e0 91 42 07 	lds	r30, 0x0742
    243e:	f0 91 43 07 	lds	r31, 0x0743
    2442:	e0 5c       	subi	r30, 0xC0	; 192
    2444:	ff 4f       	sbci	r31, 0xFF	; 255
    2446:	81 91       	ld	r24, Z+
    2448:	91 91       	ld	r25, Z+
    244a:	20 81       	ld	r18, Z
    244c:	31 81       	ldd	r19, Z+1	; 0x01
    244e:	82 1b       	sub	r24, r18
    2450:	93 0b       	sbc	r25, r19
    2452:	8f 73       	andi	r24, 0x3F	; 63
    2454:	90 70       	andi	r25, 0x00	; 0
    2456:	89 2b       	or	r24, r25
    2458:	11 f0       	breq	.+4      	;  0x245e
    245a:	0e 94 e8 11 	call	0x23d0	;  0x23d0
    245e:	08 95       	ret
    2460:	1f 92       	push	r1
    2462:	0f 92       	push	r0
    2464:	0f b6       	in	r0, 0x3f	; 63
    2466:	0f 92       	push	r0
    2468:	11 24       	eor	r1, r1
    246a:	2f 93       	push	r18
    246c:	3f 93       	push	r19
    246e:	4f 93       	push	r20
    2470:	5f 93       	push	r21
    2472:	6f 93       	push	r22
    2474:	7f 93       	push	r23
    2476:	8f 93       	push	r24
    2478:	9f 93       	push	r25
    247a:	af 93       	push	r26
    247c:	bf 93       	push	r27
    247e:	ef 93       	push	r30
    2480:	ff 93       	push	r31
    2482:	20 91 32 07 	lds	r18, 0x0732
    2486:	30 91 33 07 	lds	r19, 0x0733
    248a:	80 91 34 07 	lds	r24, 0x0734
    248e:	90 91 35 07 	lds	r25, 0x0735
    2492:	28 17       	cp	r18, r24
    2494:	39 07       	cpc	r19, r25
    2496:	31 f4       	brne	.+12     	;  0x24a4
    2498:	80 91 c1 00 	lds	r24, 0x00C1
    249c:	8f 7d       	andi	r24, 0xDF	; 223
    249e:	80 93 c1 00 	sts	0x00C1, r24
    24a2:	16 c0       	rjmp	.+44     	;  0x24d0
    24a4:	e0 91 34 07 	lds	r30, 0x0734
    24a8:	f0 91 35 07 	lds	r31, 0x0735
    24ac:	ee 50       	subi	r30, 0x0E	; 14
    24ae:	f9 4f       	sbci	r31, 0xF9	; 249
    24b0:	40 81       	ld	r20, Z
    24b2:	80 91 34 07 	lds	r24, 0x0734
    24b6:	90 91 35 07 	lds	r25, 0x0735
    24ba:	01 96       	adiw	r24, 0x01	; 1
    24bc:	60 e4       	ldi	r22, 0x40	; 64
    24be:	70 e0       	ldi	r23, 0x00	; 0
    24c0:	0e 94 42 16 	call	0x2c84	;  0x2c84
    24c4:	90 93 35 07 	sts	0x0735, r25
    24c8:	80 93 34 07 	sts	0x0734, r24
    24cc:	40 93 c6 00 	sts	0x00C6, r20
    24d0:	ff 91       	pop	r31
    24d2:	ef 91       	pop	r30
    24d4:	bf 91       	pop	r27
    24d6:	af 91       	pop	r26
    24d8:	9f 91       	pop	r25
    24da:	8f 91       	pop	r24
    24dc:	7f 91       	pop	r23
    24de:	6f 91       	pop	r22
    24e0:	5f 91       	pop	r21
    24e2:	4f 91       	pop	r20
    24e4:	3f 91       	pop	r19
    24e6:	2f 91       	pop	r18
    24e8:	0f 90       	pop	r0
    24ea:	0f be       	out	0x3f, r0	; 63
    24ec:	0f 90       	pop	r0
    24ee:	1f 90       	pop	r1
    24f0:	18 95       	reti
    24f2:	af 92       	push	r10
    24f4:	bf 92       	push	r11
    24f6:	df 92       	push	r13
    24f8:	ef 92       	push	r14
    24fa:	ff 92       	push	r15
    24fc:	0f 93       	push	r16
    24fe:	1f 93       	push	r17
    2500:	cf 93       	push	r28
    2502:	df 93       	push	r29
    2504:	ec 01       	movw	r28, r24
    2506:	7a 01       	movw	r14, r20
    2508:	8b 01       	movw	r16, r22
    250a:	dd 24       	eor	r13, r13
    250c:	d3 94       	inc	r13
    250e:	91 e0       	ldi	r25, 0x01	; 1
    2510:	a9 2e       	mov	r10, r25
    2512:	b1 2c       	mov	r11, r1
    2514:	ec 89       	ldd	r30, Y+20	; 0x14
    2516:	fd 89       	ldd	r31, Y+21	; 0x15
    2518:	dd 20       	and	r13, r13
    251a:	69 f0       	breq	.+26     	;  0x2536
    251c:	c5 01       	movw	r24, r10
    251e:	0e 8c       	ldd	r0, Y+30	; 0x1e
    2520:	02 c0       	rjmp	.+4      	;  0x2526
    2522:	88 0f       	add	r24, r24
    2524:	99 1f       	adc	r25, r25
    2526:	0a 94       	dec	r0
    2528:	e2 f7       	brpl	.-8      	;  0x2522
    252a:	80 83       	st	Z, r24
    252c:	60 e8       	ldi	r22, 0x80	; 128
    252e:	74 e8       	ldi	r23, 0x84	; 132
    2530:	8e e1       	ldi	r24, 0x1E	; 30
    2532:	90 e0       	ldi	r25, 0x00	; 0
    2534:	05 c0       	rjmp	.+10     	;  0x2540
    2536:	10 82       	st	Z, r1
    2538:	60 e4       	ldi	r22, 0x40	; 64
    253a:	72 e4       	ldi	r23, 0x42	; 66
    253c:	8f e0       	ldi	r24, 0x0F	; 15
    253e:	90 e0       	ldi	r25, 0x00	; 0
    2540:	a8 01       	movw	r20, r16
    2542:	97 01       	movw	r18, r14
    2544:	0e 94 56 16 	call	0x2cac	;  0x2cac
    2548:	21 50       	subi	r18, 0x01	; 1
    254a:	30 40       	sbci	r19, 0x00	; 0
    254c:	40 40       	sbci	r20, 0x00	; 0
    254e:	50 40       	sbci	r21, 0x00	; 0
    2550:	56 95       	lsr	r21
    2552:	47 95       	ror	r20
    2554:	37 95       	ror	r19
    2556:	27 95       	ror	r18
    2558:	80 e1       	ldi	r24, 0x10	; 16
    255a:	20 30       	cpi	r18, 0x00	; 0
    255c:	38 07       	cpc	r19, r24
    255e:	20 f0       	brcs	.+8      	;  0x2568
    2560:	dd 20       	and	r13, r13
    2562:	11 f0       	breq	.+4      	;  0x2568
    2564:	dd 24       	eor	r13, r13
    2566:	d6 cf       	rjmp	.-84     	;  0x2514
    2568:	e8 89       	ldd	r30, Y+16	; 0x10
    256a:	f9 89       	ldd	r31, Y+17	; 0x11
    256c:	30 83       	st	Z, r19
    256e:	ea 89       	ldd	r30, Y+18	; 0x12
    2570:	fb 89       	ldd	r31, Y+19	; 0x13
    2572:	20 83       	st	Z, r18
    2574:	ee 89       	ldd	r30, Y+22	; 0x16
    2576:	ff 89       	ldd	r31, Y+23	; 0x17
    2578:	40 81       	ld	r20, Z
    257a:	21 e0       	ldi	r18, 0x01	; 1
    257c:	30 e0       	ldi	r19, 0x00	; 0
    257e:	c9 01       	movw	r24, r18
    2580:	0a 8c       	ldd	r0, Y+26	; 0x1a
    2582:	02 c0       	rjmp	.+4      	;  0x2588
    2584:	88 0f       	add	r24, r24
    2586:	99 1f       	adc	r25, r25
    2588:	0a 94       	dec	r0
    258a:	e2 f7       	brpl	.-8      	;  0x2584
    258c:	48 2b       	or	r20, r24
    258e:	40 83       	st	Z, r20
    2590:	ee 89       	ldd	r30, Y+22	; 0x16
    2592:	ff 89       	ldd	r31, Y+23	; 0x17
    2594:	40 81       	ld	r20, Z
    2596:	c9 01       	movw	r24, r18
    2598:	0b 8c       	ldd	r0, Y+27	; 0x1b
    259a:	02 c0       	rjmp	.+4      	;  0x25a0
    259c:	88 0f       	add	r24, r24
    259e:	99 1f       	adc	r25, r25
    25a0:	0a 94       	dec	r0
    25a2:	e2 f7       	brpl	.-8      	;  0x259c
    25a4:	48 2b       	or	r20, r24
    25a6:	40 83       	st	Z, r20
    25a8:	ee 89       	ldd	r30, Y+22	; 0x16
    25aa:	ff 89       	ldd	r31, Y+23	; 0x17
    25ac:	40 81       	ld	r20, Z
    25ae:	c9 01       	movw	r24, r18
    25b0:	0c 8c       	ldd	r0, Y+28	; 0x1c
    25b2:	02 c0       	rjmp	.+4      	;  0x25b8
    25b4:	88 0f       	add	r24, r24
    25b6:	99 1f       	adc	r25, r25
    25b8:	0a 94       	dec	r0
    25ba:	e2 f7       	brpl	.-8      	;  0x25b4
    25bc:	48 2b       	or	r20, r24
    25be:	40 83       	st	Z, r20
    25c0:	ee 89       	ldd	r30, Y+22	; 0x16
    25c2:	ff 89       	ldd	r31, Y+23	; 0x17
    25c4:	80 81       	ld	r24, Z
    25c6:	0d 8c       	ldd	r0, Y+29	; 0x1d
    25c8:	02 c0       	rjmp	.+4      	;  0x25ce
    25ca:	22 0f       	add	r18, r18
    25cc:	33 1f       	adc	r19, r19
    25ce:	0a 94       	dec	r0
    25d0:	e2 f7       	brpl	.-8      	;  0x25ca
    25d2:	20 95       	com	r18
    25d4:	28 23       	and	r18, r24
    25d6:	20 83       	st	Z, r18
    25d8:	df 91       	pop	r29
    25da:	cf 91       	pop	r28
    25dc:	1f 91       	pop	r17
    25de:	0f 91       	pop	r16
    25e0:	ff 90       	pop	r15
    25e2:	ef 90       	pop	r14
    25e4:	df 90       	pop	r13
    25e6:	bf 90       	pop	r11
    25e8:	af 90       	pop	r10
    25ea:	08 95       	ret
    25ec:	dc 01       	movw	r26, r24
    25ee:	1c 96       	adiw	r26, 0x0c	; 12
    25f0:	ed 91       	ld	r30, X+
    25f2:	fc 91       	ld	r31, X
    25f4:	1d 97       	sbiw	r26, 0x0d	; 13
    25f6:	e0 5c       	subi	r30, 0xC0	; 192
    25f8:	ff 4f       	sbci	r31, 0xFF	; 255
    25fa:	21 91       	ld	r18, Z+
    25fc:	31 91       	ld	r19, Z+
    25fe:	80 81       	ld	r24, Z
    2600:	91 81       	ldd	r25, Z+1	; 0x01
    2602:	28 1b       	sub	r18, r24
    2604:	39 0b       	sbc	r19, r25
    2606:	2f 73       	andi	r18, 0x3F	; 63
    2608:	30 70       	andi	r19, 0x00	; 0
    260a:	c9 01       	movw	r24, r18
    260c:	08 95       	ret
    260e:	dc 01       	movw	r26, r24
    2610:	1c 96       	adiw	r26, 0x0c	; 12
    2612:	ed 91       	ld	r30, X+
    2614:	fc 91       	ld	r31, X
    2616:	1d 97       	sbiw	r26, 0x0d	; 13
    2618:	e0 5c       	subi	r30, 0xC0	; 192
    261a:	ff 4f       	sbci	r31, 0xFF	; 255
    261c:	20 81       	ld	r18, Z
    261e:	31 81       	ldd	r19, Z+1	; 0x01
    2620:	e0 54       	subi	r30, 0x40	; 64
    2622:	f0 40       	sbci	r31, 0x00	; 0
    2624:	df 01       	movw	r26, r30
    2626:	ae 5b       	subi	r26, 0xBE	; 190
    2628:	bf 4f       	sbci	r27, 0xFF	; 255
    262a:	8d 91       	ld	r24, X+
    262c:	9c 91       	ld	r25, X
    262e:	11 97       	sbiw	r26, 0x01	; 1
    2630:	28 17       	cp	r18, r24
    2632:	39 07       	cpc	r19, r25
    2634:	19 f4       	brne	.+6      	;  0x263c
    2636:	2f ef       	ldi	r18, 0xFF	; 255
    2638:	3f ef       	ldi	r19, 0xFF	; 255
    263a:	07 c0       	rjmp	.+14     	;  0x264a
    263c:	8d 91       	ld	r24, X+
    263e:	9c 91       	ld	r25, X
    2640:	e8 0f       	add	r30, r24
    2642:	f9 1f       	adc	r31, r25
    2644:	80 81       	ld	r24, Z
    2646:	28 2f       	mov	r18, r24
    2648:	30 e0       	ldi	r19, 0x00	; 0
    264a:	c9 01       	movw	r24, r18
    264c:	08 95       	ret
    264e:	dc 01       	movw	r26, r24
    2650:	1c 96       	adiw	r26, 0x0c	; 12
    2652:	ed 91       	ld	r30, X+
    2654:	fc 91       	ld	r31, X
    2656:	1d 97       	sbiw	r26, 0x0d	; 13
    2658:	e0 5c       	subi	r30, 0xC0	; 192
    265a:	ff 4f       	sbci	r31, 0xFF	; 255
    265c:	20 81       	ld	r18, Z
    265e:	31 81       	ldd	r19, Z+1	; 0x01
    2660:	e0 54       	subi	r30, 0x40	; 64
    2662:	f0 40       	sbci	r31, 0x00	; 0
    2664:	df 01       	movw	r26, r30
    2666:	ae 5b       	subi	r26, 0xBE	; 190
    2668:	bf 4f       	sbci	r27, 0xFF	; 255
    266a:	8d 91       	ld	r24, X+
    266c:	9c 91       	ld	r25, X
    266e:	11 97       	sbiw	r26, 0x01	; 1
    2670:	28 17       	cp	r18, r24
    2672:	39 07       	cpc	r19, r25
    2674:	19 f4       	brne	.+6      	;  0x267c
    2676:	2f ef       	ldi	r18, 0xFF	; 255
    2678:	3f ef       	ldi	r19, 0xFF	; 255
    267a:	10 c0       	rjmp	.+32     	;  0x269c
    267c:	8d 91       	ld	r24, X+
    267e:	9c 91       	ld	r25, X
    2680:	11 97       	sbiw	r26, 0x01	; 1
    2682:	e8 0f       	add	r30, r24
    2684:	f9 1f       	adc	r31, r25
    2686:	20 81       	ld	r18, Z
    2688:	8d 91       	ld	r24, X+
    268a:	9c 91       	ld	r25, X
    268c:	11 97       	sbiw	r26, 0x01	; 1
    268e:	01 96       	adiw	r24, 0x01	; 1
    2690:	8f 73       	andi	r24, 0x3F	; 63
    2692:	90 70       	andi	r25, 0x00	; 0
    2694:	11 96       	adiw	r26, 0x01	; 1
    2696:	9c 93       	st	X, r25
    2698:	8e 93       	st	-X, r24
    269a:	30 e0       	ldi	r19, 0x00	; 0
    269c:	c9 01       	movw	r24, r18
    269e:	08 95       	ret
    26a0:	fc 01       	movw	r30, r24
    26a2:	86 85       	ldd	r24, Z+14	; 0x0e
    26a4:	97 85       	ldd	r25, Z+15	; 0x0f
    26a6:	dc 01       	movw	r26, r24
    26a8:	a0 5c       	subi	r26, 0xC0	; 192
    26aa:	bf 4f       	sbci	r27, 0xFF	; 255
    26ac:	fc 01       	movw	r30, r24
    26ae:	ee 5b       	subi	r30, 0xBE	; 190
    26b0:	ff 4f       	sbci	r31, 0xFF	; 255
    26b2:	2d 91       	ld	r18, X+
    26b4:	3c 91       	ld	r19, X
    26b6:	11 97       	sbiw	r26, 0x01	; 1
    26b8:	80 81       	ld	r24, Z
    26ba:	91 81       	ldd	r25, Z+1	; 0x01
    26bc:	28 17       	cp	r18, r24
    26be:	39 07       	cpc	r19, r25
    26c0:	c1 f7       	brne	.-16     	;  0x26b2
    26c2:	08 95       	ret
    26c4:	cf 93       	push	r28
    26c6:	df 93       	push	r29
    26c8:	ec 01       	movw	r28, r24
    26ca:	46 2f       	mov	r20, r22
    26cc:	ee 85       	ldd	r30, Y+14	; 0x0e
    26ce:	ff 85       	ldd	r31, Y+15	; 0x0f
    26d0:	e0 5c       	subi	r30, 0xC0	; 192
    26d2:	ff 4f       	sbci	r31, 0xFF	; 255
    26d4:	80 81       	ld	r24, Z
    26d6:	91 81       	ldd	r25, Z+1	; 0x01
    26d8:	e0 54       	subi	r30, 0x40	; 64
    26da:	f0 40       	sbci	r31, 0x00	; 0
    26dc:	01 96       	adiw	r24, 0x01	; 1
    26de:	60 e4       	ldi	r22, 0x40	; 64
    26e0:	70 e0       	ldi	r23, 0x00	; 0
    26e2:	0e 94 42 16 	call	0x2c84	;  0x2c84
    26e6:	9c 01       	movw	r18, r24
    26e8:	df 01       	movw	r26, r30
    26ea:	ae 5b       	subi	r26, 0xBE	; 190
    26ec:	bf 4f       	sbci	r27, 0xFF	; 255
    26ee:	8d 91       	ld	r24, X+
    26f0:	9c 91       	ld	r25, X
    26f2:	11 97       	sbiw	r26, 0x01	; 1
    26f4:	28 17       	cp	r18, r24
    26f6:	39 07       	cpc	r19, r25
    26f8:	d1 f3       	breq	.-12     	;  0x26ee
    26fa:	e0 5c       	subi	r30, 0xC0	; 192
    26fc:	ff 4f       	sbci	r31, 0xFF	; 255
    26fe:	80 81       	ld	r24, Z
    2700:	91 81       	ldd	r25, Z+1	; 0x01
    2702:	e0 54       	subi	r30, 0x40	; 64
    2704:	f0 40       	sbci	r31, 0x00	; 0
    2706:	e8 0f       	add	r30, r24
    2708:	f9 1f       	adc	r31, r25
    270a:	40 83       	st	Z, r20
    270c:	ee 85       	ldd	r30, Y+14	; 0x0e
    270e:	ff 85       	ldd	r31, Y+15	; 0x0f
    2710:	e0 5c       	subi	r30, 0xC0	; 192
    2712:	ff 4f       	sbci	r31, 0xFF	; 255
    2714:	31 83       	std	Z+1, r19	; 0x01
    2716:	20 83       	st	Z, r18
    2718:	ee 89       	ldd	r30, Y+22	; 0x16
    271a:	ff 89       	ldd	r31, Y+23	; 0x17
    271c:	20 81       	ld	r18, Z
    271e:	81 e0       	ldi	r24, 0x01	; 1
    2720:	90 e0       	ldi	r25, 0x00	; 0
    2722:	0d 8c       	ldd	r0, Y+29	; 0x1d
    2724:	02 c0       	rjmp	.+4      	;  0x272a
    2726:	88 0f       	add	r24, r24
    2728:	99 1f       	adc	r25, r25
    272a:	0a 94       	dec	r0
    272c:	e2 f7       	brpl	.-8      	;  0x2726
    272e:	28 2b       	or	r18, r24
    2730:	20 83       	st	Z, r18
    2732:	81 e0       	ldi	r24, 0x01	; 1
    2734:	90 e0       	ldi	r25, 0x00	; 0
    2736:	df 91       	pop	r29
    2738:	cf 91       	pop	r28
    273a:	08 95       	ret
    273c:	10 92 39 07 	sts	0x0739, r1
    2740:	10 92 38 07 	sts	0x0738, r1
    2744:	88 ee       	ldi	r24, 0xE8	; 232
    2746:	93 e0       	ldi	r25, 0x03	; 3
    2748:	a0 e0       	ldi	r26, 0x00	; 0
    274a:	b0 e0       	ldi	r27, 0x00	; 0
    274c:	80 93 3a 07 	sts	0x073A, r24
    2750:	90 93 3b 07 	sts	0x073B, r25
    2754:	a0 93 3c 07 	sts	0x073C, r26
    2758:	b0 93 3d 07 	sts	0x073D, r27
    275c:	8e e8       	ldi	r24, 0x8E	; 142
    275e:	92 e0       	ldi	r25, 0x02	; 2
    2760:	90 93 37 07 	sts	0x0737, r25
    2764:	80 93 36 07 	sts	0x0736, r24
    2768:	8e ea       	ldi	r24, 0xAE	; 174
    276a:	96 e0       	ldi	r25, 0x06	; 6
    276c:	90 93 43 07 	sts	0x0743, r25
    2770:	80 93 42 07 	sts	0x0742, r24
    2774:	82 ef       	ldi	r24, 0xF2	; 242
    2776:	96 e0       	ldi	r25, 0x06	; 6
    2778:	90 93 45 07 	sts	0x0745, r25
    277c:	80 93 44 07 	sts	0x0744, r24
    2780:	85 ec       	ldi	r24, 0xC5	; 197
    2782:	90 e0       	ldi	r25, 0x00	; 0
    2784:	90 93 47 07 	sts	0x0747, r25
    2788:	80 93 46 07 	sts	0x0746, r24
    278c:	84 ec       	ldi	r24, 0xC4	; 196
    278e:	90 e0       	ldi	r25, 0x00	; 0
    2790:	90 93 49 07 	sts	0x0749, r25
    2794:	80 93 48 07 	sts	0x0748, r24
    2798:	80 ec       	ldi	r24, 0xC0	; 192
    279a:	90 e0       	ldi	r25, 0x00	; 0
    279c:	90 93 4b 07 	sts	0x074B, r25
    27a0:	80 93 4a 07 	sts	0x074A, r24
    27a4:	81 ec       	ldi	r24, 0xC1	; 193
    27a6:	90 e0       	ldi	r25, 0x00	; 0
    27a8:	90 93 4d 07 	sts	0x074D, r25
    27ac:	80 93 4c 07 	sts	0x074C, r24
    27b0:	86 ec       	ldi	r24, 0xC6	; 198
    27b2:	90 e0       	ldi	r25, 0x00	; 0
    27b4:	90 93 4f 07 	sts	0x074F, r25
    27b8:	80 93 4e 07 	sts	0x074E, r24
    27bc:	84 e0       	ldi	r24, 0x04	; 4
    27be:	80 93 50 07 	sts	0x0750, r24
    27c2:	83 e0       	ldi	r24, 0x03	; 3
    27c4:	80 93 51 07 	sts	0x0751, r24
    27c8:	87 e0       	ldi	r24, 0x07	; 7
    27ca:	80 93 52 07 	sts	0x0752, r24
    27ce:	85 e0       	ldi	r24, 0x05	; 5
    27d0:	80 93 53 07 	sts	0x0753, r24
    27d4:	81 e0       	ldi	r24, 0x01	; 1
    27d6:	80 93 54 07 	sts	0x0754, r24
    27da:	08 95       	ret
    27dc:	cf 93       	push	r28
    27de:	df 93       	push	r29
    27e0:	0e 94 bb 10 	call	0x2176	;  0x2176
    27e4:	0e 94 44 0a 	call	0x1488	;  0x1488
    27e8:	cd e1       	ldi	r28, 0x1D	; 29
    27ea:	d2 e1       	ldi	r29, 0x12	; 18
    27ec:	0e 94 ed 0d 	call	0x1bda	;  0x1bda
    27f0:	20 97       	sbiw	r28, 0x00	; 0
    27f2:	e1 f3       	breq	.-8      	;  0x27ec
    27f4:	0e 94 1d 12 	call	0x243a	;  0x243a
    27f8:	f9 cf       	rjmp	.-14     	;  0x27ec
    27fa:	cf 92       	push	r12
    27fc:	df 92       	push	r13
    27fe:	ef 92       	push	r14
    2800:	ff 92       	push	r15
    2802:	0f 93       	push	r16
    2804:	1f 93       	push	r17
    2806:	cf 93       	push	r28
    2808:	df 93       	push	r29
    280a:	7c 01       	movw	r14, r24
    280c:	6b 01       	movw	r12, r22
    280e:	8a 01       	movw	r16, r20
    2810:	c0 e0       	ldi	r28, 0x00	; 0
    2812:	d0 e0       	ldi	r29, 0x00	; 0
    2814:	0f c0       	rjmp	.+30     	;  0x2834
    2816:	d6 01       	movw	r26, r12
    2818:	6d 91       	ld	r22, X+
    281a:	6d 01       	movw	r12, r26
    281c:	d7 01       	movw	r26, r14
    281e:	ed 91       	ld	r30, X+
    2820:	fc 91       	ld	r31, X
    2822:	01 90       	ld	r0, Z+
    2824:	f0 81       	ld	r31, Z
    2826:	e0 2d       	mov	r30, r0
    2828:	c7 01       	movw	r24, r14
    282a:	09 95       	icall
    282c:	c8 0f       	add	r28, r24
    282e:	d9 1f       	adc	r29, r25
    2830:	01 50       	subi	r16, 0x01	; 1
    2832:	10 40       	sbci	r17, 0x00	; 0
    2834:	01 15       	cp	r16, r1
    2836:	11 05       	cpc	r17, r1
    2838:	71 f7       	brne	.-36     	;  0x2816
    283a:	ce 01       	movw	r24, r28
    283c:	df 91       	pop	r29
    283e:	cf 91       	pop	r28
    2840:	1f 91       	pop	r17
    2842:	0f 91       	pop	r16
    2844:	ff 90       	pop	r15
    2846:	ef 90       	pop	r14
    2848:	df 90       	pop	r13
    284a:	cf 90       	pop	r12
    284c:	08 95       	ret
    284e:	50 58       	subi	r21, 0x80	; 128
    2850:	bb 27       	eor	r27, r27
    2852:	aa 27       	eor	r26, r26
    2854:	0e d0       	rcall	.+28     	;  0x2872
    2856:	75 c1       	rjmp	.+746    	;  0x2b42
    2858:	66 d1       	rcall	.+716    	;  0x2b26
    285a:	30 f0       	brcs	.+12     	;  0x2868
    285c:	6b d1       	rcall	.+726    	;  0x2b34
    285e:	20 f0       	brcs	.+8      	;  0x2868
    2860:	31 f4       	brne	.+12     	;  0x286e
    2862:	9f 3f       	cpi	r25, 0xFF	; 255
    2864:	11 f4       	brne	.+4      	;  0x286a
    2866:	1e f4       	brtc	.+6      	;  0x286e
    2868:	5b c1       	rjmp	.+694    	;  0x2b20
    286a:	0e f4       	brtc	.+2      	;  0x286e
    286c:	e0 95       	com	r30
    286e:	e7 fb       	bst	r30, 7
    2870:	51 c1       	rjmp	.+674    	;  0x2b14
    2872:	e9 2f       	mov	r30, r25
    2874:	77 d1       	rcall	.+750    	;  0x2b64
    2876:	80 f3       	brcs	.-32     	;  0x2858
    2878:	ba 17       	cp	r27, r26
    287a:	62 07       	cpc	r22, r18
    287c:	73 07       	cpc	r23, r19
    287e:	84 07       	cpc	r24, r20
    2880:	95 07       	cpc	r25, r21
    2882:	18 f0       	brcs	.+6      	;  0x288a
    2884:	71 f4       	brne	.+28     	;  0x28a2
    2886:	9e f5       	brtc	.+102    	;  0x28ee
    2888:	8f c1       	rjmp	.+798    	;  0x2ba8
    288a:	0e f4       	brtc	.+2      	;  0x288e
    288c:	e0 95       	com	r30
    288e:	0b 2e       	mov	r0, r27
    2890:	ba 2f       	mov	r27, r26
    2892:	a0 2d       	mov	r26, r0
    2894:	0b 01       	movw	r0, r22
    2896:	b9 01       	movw	r22, r18
    2898:	90 01       	movw	r18, r0
    289a:	0c 01       	movw	r0, r24
    289c:	ca 01       	movw	r24, r20
    289e:	a0 01       	movw	r20, r0
    28a0:	11 24       	eor	r1, r1
    28a2:	ff 27       	eor	r31, r31
    28a4:	59 1b       	sub	r21, r25
    28a6:	99 f0       	breq	.+38     	;  0x28ce
    28a8:	59 3f       	cpi	r21, 0xF9	; 249
    28aa:	50 f4       	brcc	.+20     	;  0x28c0
    28ac:	50 3e       	cpi	r21, 0xE0	; 224
    28ae:	68 f1       	brcs	.+90     	;  0x290a
    28b0:	1a 16       	cp	r1, r26
    28b2:	f0 40       	sbci	r31, 0x00	; 0
    28b4:	a2 2f       	mov	r26, r18
    28b6:	23 2f       	mov	r18, r19
    28b8:	34 2f       	mov	r19, r20
    28ba:	44 27       	eor	r20, r20
    28bc:	58 5f       	subi	r21, 0xF8	; 248
    28be:	f3 cf       	rjmp	.-26     	;  0x28a6
    28c0:	46 95       	lsr	r20
    28c2:	37 95       	ror	r19
    28c4:	27 95       	ror	r18
    28c6:	a7 95       	ror	r26
    28c8:	f0 40       	sbci	r31, 0x00	; 0
    28ca:	53 95       	inc	r21
    28cc:	c9 f7       	brne	.-14     	;  0x28c0
    28ce:	7e f4       	brtc	.+30     	;  0x28ee
    28d0:	1f 16       	cp	r1, r31
    28d2:	ba 0b       	sbc	r27, r26
    28d4:	62 0b       	sbc	r22, r18
    28d6:	73 0b       	sbc	r23, r19
    28d8:	84 0b       	sbc	r24, r20
    28da:	ba f0       	brmi	.+46     	;  0x290a
    28dc:	91 50       	subi	r25, 0x01	; 1
    28de:	a1 f0       	breq	.+40     	;  0x2908
    28e0:	ff 0f       	add	r31, r31
    28e2:	bb 1f       	adc	r27, r27
    28e4:	66 1f       	adc	r22, r22
    28e6:	77 1f       	adc	r23, r23
    28e8:	88 1f       	adc	r24, r24
    28ea:	c2 f7       	brpl	.-16     	;  0x28dc
    28ec:	0e c0       	rjmp	.+28     	;  0x290a
    28ee:	ba 0f       	add	r27, r26
    28f0:	62 1f       	adc	r22, r18
    28f2:	73 1f       	adc	r23, r19
    28f4:	84 1f       	adc	r24, r20
    28f6:	48 f4       	brcc	.+18     	;  0x290a
    28f8:	87 95       	ror	r24
    28fa:	77 95       	ror	r23
    28fc:	67 95       	ror	r22
    28fe:	b7 95       	ror	r27
    2900:	f7 95       	ror	r31
    2902:	9e 3f       	cpi	r25, 0xFE	; 254
    2904:	08 f0       	brcs	.+2      	;  0x2908
    2906:	b3 cf       	rjmp	.-154    	;  0x286e
    2908:	93 95       	inc	r25
    290a:	88 0f       	add	r24, r24
    290c:	08 f0       	brcs	.+2      	;  0x2910
    290e:	99 27       	eor	r25, r25
    2910:	ee 0f       	add	r30, r30
    2912:	97 95       	ror	r25
    2914:	87 95       	ror	r24
    2916:	08 95       	ret
    2918:	d9 d0       	rcall	.+434    	;  0x2acc
    291a:	08 f4       	brcc	.+2      	;  0x291e
    291c:	81 e0       	ldi	r24, 0x01	; 1
    291e:	08 95       	ret
    2920:	0c d0       	rcall	.+24     	;  0x293a
    2922:	0f c1       	rjmp	.+542    	;  0x2b42
    2924:	07 d1       	rcall	.+526    	;  0x2b34
    2926:	40 f0       	brcs	.+16     	;  0x2938
    2928:	fe d0       	rcall	.+508    	;  0x2b26
    292a:	30 f0       	brcs	.+12     	;  0x2938
    292c:	21 f4       	brne	.+8      	;  0x2936
    292e:	5f 3f       	cpi	r21, 0xFF	; 255
    2930:	19 f0       	breq	.+6      	;  0x2938
    2932:	f0 c0       	rjmp	.+480    	;  0x2b14
    2934:	51 11       	cpse	r21, r1
    2936:	39 c1       	rjmp	.+626    	;  0x2baa
    2938:	f3 c0       	rjmp	.+486    	;  0x2b20
    293a:	14 d1       	rcall	.+552    	;  0x2b64
    293c:	98 f3       	brcs	.-26     	;  0x2924
    293e:	99 23       	and	r25, r25
    2940:	c9 f3       	breq	.-14     	;  0x2934
    2942:	55 23       	and	r21, r21
    2944:	b1 f3       	breq	.-20     	;  0x2932
    2946:	95 1b       	sub	r25, r21
    2948:	55 0b       	sbc	r21, r21
    294a:	bb 27       	eor	r27, r27
    294c:	aa 27       	eor	r26, r26
    294e:	62 17       	cp	r22, r18
    2950:	73 07       	cpc	r23, r19
    2952:	84 07       	cpc	r24, r20
    2954:	38 f0       	brcs	.+14     	;  0x2964
    2956:	9f 5f       	subi	r25, 0xFF	; 255
    2958:	5f 4f       	sbci	r21, 0xFF	; 255
    295a:	22 0f       	add	r18, r18
    295c:	33 1f       	adc	r19, r19
    295e:	44 1f       	adc	r20, r20
    2960:	aa 1f       	adc	r26, r26
    2962:	a9 f3       	breq	.-22     	;  0x294e
    2964:	33 d0       	rcall	.+102    	;  0x29cc
    2966:	0e 2e       	mov	r0, r30
    2968:	3a f0       	brmi	.+14     	;  0x2978
    296a:	e0 e8       	ldi	r30, 0x80	; 128
    296c:	30 d0       	rcall	.+96     	;  0x29ce
    296e:	91 50       	subi	r25, 0x01	; 1
    2970:	50 40       	sbci	r21, 0x00	; 0
    2972:	e6 95       	lsr	r30
    2974:	00 1c       	adc	r0, r0
    2976:	ca f7       	brpl	.-14     	;  0x296a
    2978:	29 d0       	rcall	.+82     	;  0x29cc
    297a:	fe 2f       	mov	r31, r30
    297c:	27 d0       	rcall	.+78     	;  0x29cc
    297e:	66 0f       	add	r22, r22
    2980:	77 1f       	adc	r23, r23
    2982:	88 1f       	adc	r24, r24
    2984:	bb 1f       	adc	r27, r27
    2986:	26 17       	cp	r18, r22
    2988:	37 07       	cpc	r19, r23
    298a:	48 07       	cpc	r20, r24
    298c:	ab 07       	cpc	r26, r27
    298e:	b0 e8       	ldi	r27, 0x80	; 128
    2990:	09 f0       	breq	.+2      	;  0x2994
    2992:	bb 0b       	sbc	r27, r27
    2994:	80 2d       	mov	r24, r0
    2996:	bf 01       	movw	r22, r30
    2998:	ff 27       	eor	r31, r31
    299a:	93 58       	subi	r25, 0x83	; 131
    299c:	5f 4f       	sbci	r21, 0xFF	; 255
    299e:	2a f0       	brmi	.+10     	;  0x29aa
    29a0:	9e 3f       	cpi	r25, 0xFE	; 254
    29a2:	51 05       	cpc	r21, r1
    29a4:	68 f0       	brcs	.+26     	;  0x29c0
    29a6:	b6 c0       	rjmp	.+364    	;  0x2b14
    29a8:	00 c1       	rjmp	.+512    	;  0x2baa
    29aa:	5f 3f       	cpi	r21, 0xFF	; 255
    29ac:	ec f3       	brlt	.-6      	;  0x29a8
    29ae:	98 3e       	cpi	r25, 0xE8	; 232
    29b0:	dc f3       	brlt	.-10     	;  0x29a8
    29b2:	86 95       	lsr	r24
    29b4:	77 95       	ror	r23
    29b6:	67 95       	ror	r22
    29b8:	b7 95       	ror	r27
    29ba:	f7 95       	ror	r31
    29bc:	9f 5f       	subi	r25, 0xFF	; 255
    29be:	c9 f7       	brne	.-14     	;  0x29b2
    29c0:	88 0f       	add	r24, r24
    29c2:	91 1d       	adc	r25, r1
    29c4:	96 95       	lsr	r25
    29c6:	87 95       	ror	r24
    29c8:	97 f9       	bld	r25, 7
    29ca:	08 95       	ret
    29cc:	e1 e0       	ldi	r30, 0x01	; 1
    29ce:	66 0f       	add	r22, r22
    29d0:	77 1f       	adc	r23, r23
    29d2:	88 1f       	adc	r24, r24
    29d4:	bb 1f       	adc	r27, r27
    29d6:	62 17       	cp	r22, r18
    29d8:	73 07       	cpc	r23, r19
    29da:	84 07       	cpc	r24, r20
    29dc:	ba 07       	cpc	r27, r26
    29de:	20 f0       	brcs	.+8      	;  0x29e8
    29e0:	62 1b       	sub	r22, r18
    29e2:	73 0b       	sbc	r23, r19
    29e4:	84 0b       	sbc	r24, r20
    29e6:	ba 0b       	sbc	r27, r26
    29e8:	ee 1f       	adc	r30, r30
    29ea:	88 f7       	brcc	.-30     	;  0x29ce
    29ec:	e0 95       	com	r30
    29ee:	08 95       	ret
    29f0:	04 d0       	rcall	.+8      	;  0x29fa
    29f2:	68 94       	set
    29f4:	b1 11       	cpse	r27, r1
    29f6:	d9 c0       	rjmp	.+434    	;  0x2baa
    29f8:	08 95       	ret
    29fa:	bc d0       	rcall	.+376    	;  0x2b74
    29fc:	88 f0       	brcs	.+34     	;  0x2a20
    29fe:	9f 57       	subi	r25, 0x7F	; 127
    2a00:	90 f0       	brcs	.+36     	;  0x2a26
    2a02:	b9 2f       	mov	r27, r25
    2a04:	99 27       	eor	r25, r25
    2a06:	b7 51       	subi	r27, 0x17	; 23
    2a08:	a0 f0       	brcs	.+40     	;  0x2a32
    2a0a:	d1 f0       	breq	.+52     	;  0x2a40
    2a0c:	66 0f       	add	r22, r22
    2a0e:	77 1f       	adc	r23, r23
    2a10:	88 1f       	adc	r24, r24
    2a12:	99 1f       	adc	r25, r25
    2a14:	1a f0       	brmi	.+6      	;  0x2a1c
    2a16:	ba 95       	dec	r27
    2a18:	c9 f7       	brne	.-14     	;  0x2a0c
    2a1a:	12 c0       	rjmp	.+36     	;  0x2a40
    2a1c:	b1 30       	cpi	r27, 0x01	; 1
    2a1e:	81 f0       	breq	.+32     	;  0x2a40
    2a20:	c3 d0       	rcall	.+390    	;  0x2ba8
    2a22:	b1 e0       	ldi	r27, 0x01	; 1
    2a24:	08 95       	ret
    2a26:	c0 c0       	rjmp	.+384    	;  0x2ba8
    2a28:	67 2f       	mov	r22, r23
    2a2a:	78 2f       	mov	r23, r24
    2a2c:	88 27       	eor	r24, r24
    2a2e:	b8 5f       	subi	r27, 0xF8	; 248
    2a30:	39 f0       	breq	.+14     	;  0x2a40
    2a32:	b9 3f       	cpi	r27, 0xF9	; 249
    2a34:	cc f3       	brlt	.-14     	;  0x2a28
    2a36:	86 95       	lsr	r24
    2a38:	77 95       	ror	r23
    2a3a:	67 95       	ror	r22
    2a3c:	b3 95       	inc	r27
    2a3e:	d9 f7       	brne	.-10     	;  0x2a36
    2a40:	3e f4       	brtc	.+14     	;  0x2a50
    2a42:	90 95       	com	r25
    2a44:	80 95       	com	r24
    2a46:	70 95       	com	r23
    2a48:	61 95       	neg	r22
    2a4a:	7f 4f       	sbci	r23, 0xFF	; 255
    2a4c:	8f 4f       	sbci	r24, 0xFF	; 255
    2a4e:	9f 4f       	sbci	r25, 0xFF	; 255
    2a50:	08 95       	ret
    2a52:	e8 94       	clt
    2a54:	09 c0       	rjmp	.+18     	;  0x2a68
    2a56:	97 fb       	bst	r25, 7
    2a58:	3e f4       	brtc	.+14     	;  0x2a68
    2a5a:	90 95       	com	r25
    2a5c:	80 95       	com	r24
    2a5e:	70 95       	com	r23
    2a60:	61 95       	neg	r22
    2a62:	7f 4f       	sbci	r23, 0xFF	; 255
    2a64:	8f 4f       	sbci	r24, 0xFF	; 255
    2a66:	9f 4f       	sbci	r25, 0xFF	; 255
    2a68:	99 23       	and	r25, r25
    2a6a:	a9 f0       	breq	.+42     	;  0x2a96
    2a6c:	f9 2f       	mov	r31, r25
    2a6e:	96 e9       	ldi	r25, 0x96	; 150
    2a70:	bb 27       	eor	r27, r27
    2a72:	93 95       	inc	r25
    2a74:	f6 95       	lsr	r31
    2a76:	87 95       	ror	r24
    2a78:	77 95       	ror	r23
    2a7a:	67 95       	ror	r22
    2a7c:	b7 95       	ror	r27
    2a7e:	f1 11       	cpse	r31, r1
    2a80:	f8 cf       	rjmp	.-16     	;  0x2a72
    2a82:	fa f4       	brpl	.+62     	;  0x2ac2
    2a84:	bb 0f       	add	r27, r27
    2a86:	11 f4       	brne	.+4      	;  0x2a8c
    2a88:	60 ff       	sbrs	r22, 0
    2a8a:	1b c0       	rjmp	.+54     	;  0x2ac2
    2a8c:	6f 5f       	subi	r22, 0xFF	; 255
    2a8e:	7f 4f       	sbci	r23, 0xFF	; 255
    2a90:	8f 4f       	sbci	r24, 0xFF	; 255
    2a92:	9f 4f       	sbci	r25, 0xFF	; 255
    2a94:	16 c0       	rjmp	.+44     	;  0x2ac2
    2a96:	88 23       	and	r24, r24
    2a98:	11 f0       	breq	.+4      	;  0x2a9e
    2a9a:	96 e9       	ldi	r25, 0x96	; 150
    2a9c:	11 c0       	rjmp	.+34     	;  0x2ac0
    2a9e:	77 23       	and	r23, r23
    2aa0:	21 f0       	breq	.+8      	;  0x2aaa
    2aa2:	9e e8       	ldi	r25, 0x8E	; 142
    2aa4:	87 2f       	mov	r24, r23
    2aa6:	76 2f       	mov	r23, r22
    2aa8:	05 c0       	rjmp	.+10     	;  0x2ab4
    2aaa:	66 23       	and	r22, r22
    2aac:	71 f0       	breq	.+28     	;  0x2aca
    2aae:	96 e8       	ldi	r25, 0x86	; 134
    2ab0:	86 2f       	mov	r24, r22
    2ab2:	70 e0       	ldi	r23, 0x00	; 0
    2ab4:	60 e0       	ldi	r22, 0x00	; 0
    2ab6:	2a f0       	brmi	.+10     	;  0x2ac2
    2ab8:	9a 95       	dec	r25
    2aba:	66 0f       	add	r22, r22
    2abc:	77 1f       	adc	r23, r23
    2abe:	88 1f       	adc	r24, r24
    2ac0:	da f7       	brpl	.-10     	;  0x2ab8
    2ac2:	88 0f       	add	r24, r24
    2ac4:	96 95       	lsr	r25
    2ac6:	87 95       	ror	r24
    2ac8:	97 f9       	bld	r25, 7
    2aca:	08 95       	ret
    2acc:	99 0f       	add	r25, r25
    2ace:	00 08       	sbc	r0, r0
    2ad0:	55 0f       	add	r21, r21
    2ad2:	aa 0b       	sbc	r26, r26
    2ad4:	e0 e8       	ldi	r30, 0x80	; 128
    2ad6:	fe ef       	ldi	r31, 0xFE	; 254
    2ad8:	16 16       	cp	r1, r22
    2ada:	17 06       	cpc	r1, r23
    2adc:	e8 07       	cpc	r30, r24
    2ade:	f9 07       	cpc	r31, r25
    2ae0:	c0 f0       	brcs	.+48     	;  0x2b12
    2ae2:	12 16       	cp	r1, r18
    2ae4:	13 06       	cpc	r1, r19
    2ae6:	e4 07       	cpc	r30, r20
    2ae8:	f5 07       	cpc	r31, r21
    2aea:	98 f0       	brcs	.+38     	;  0x2b12
    2aec:	62 1b       	sub	r22, r18
    2aee:	73 0b       	sbc	r23, r19
    2af0:	84 0b       	sbc	r24, r20
    2af2:	95 0b       	sbc	r25, r21
    2af4:	39 f4       	brne	.+14     	;  0x2b04
    2af6:	0a 26       	eor	r0, r26
    2af8:	61 f0       	breq	.+24     	;  0x2b12
    2afa:	23 2b       	or	r18, r19
    2afc:	24 2b       	or	r18, r20
    2afe:	25 2b       	or	r18, r21
    2b00:	21 f4       	brne	.+8      	;  0x2b0a
    2b02:	08 95       	ret
    2b04:	0a 26       	eor	r0, r26
    2b06:	09 f4       	brne	.+2      	;  0x2b0a
    2b08:	a1 40       	sbci	r26, 0x01	; 1
    2b0a:	a6 95       	lsr	r26
    2b0c:	8f ef       	ldi	r24, 0xFF	; 255
    2b0e:	81 1d       	adc	r24, r1
    2b10:	81 1d       	adc	r24, r1
    2b12:	08 95       	ret
    2b14:	97 f9       	bld	r25, 7
    2b16:	9f 67       	ori	r25, 0x7F	; 127
    2b18:	80 e8       	ldi	r24, 0x80	; 128
    2b1a:	70 e0       	ldi	r23, 0x00	; 0
    2b1c:	60 e0       	ldi	r22, 0x00	; 0
    2b1e:	08 95       	ret
    2b20:	9f ef       	ldi	r25, 0xFF	; 255
    2b22:	80 ec       	ldi	r24, 0xC0	; 192
    2b24:	08 95       	ret
    2b26:	00 24       	eor	r0, r0
    2b28:	0a 94       	dec	r0
    2b2a:	16 16       	cp	r1, r22
    2b2c:	17 06       	cpc	r1, r23
    2b2e:	18 06       	cpc	r1, r24
    2b30:	09 06       	cpc	r0, r25
    2b32:	08 95       	ret
    2b34:	00 24       	eor	r0, r0
    2b36:	0a 94       	dec	r0
    2b38:	12 16       	cp	r1, r18
    2b3a:	13 06       	cpc	r1, r19
    2b3c:	14 06       	cpc	r1, r20
    2b3e:	05 06       	cpc	r0, r21
    2b40:	08 95       	ret
    2b42:	09 2e       	mov	r0, r25
    2b44:	03 94       	inc	r0
    2b46:	00 0c       	add	r0, r0
    2b48:	11 f4       	brne	.+4      	;  0x2b4e
    2b4a:	88 23       	and	r24, r24
    2b4c:	52 f0       	brmi	.+20     	;  0x2b62
    2b4e:	bb 0f       	add	r27, r27
    2b50:	40 f4       	brcc	.+16     	;  0x2b62
    2b52:	bf 2b       	or	r27, r31
    2b54:	11 f4       	brne	.+4      	;  0x2b5a
    2b56:	60 ff       	sbrs	r22, 0
    2b58:	04 c0       	rjmp	.+8      	;  0x2b62
    2b5a:	6f 5f       	subi	r22, 0xFF	; 255
    2b5c:	7f 4f       	sbci	r23, 0xFF	; 255
    2b5e:	8f 4f       	sbci	r24, 0xFF	; 255
    2b60:	9f 4f       	sbci	r25, 0xFF	; 255
    2b62:	08 95       	ret
    2b64:	57 fd       	sbrc	r21, 7
    2b66:	90 58       	subi	r25, 0x80	; 128
    2b68:	44 0f       	add	r20, r20
    2b6a:	55 1f       	adc	r21, r21
    2b6c:	59 f0       	breq	.+22     	;  0x2b84
    2b6e:	5f 3f       	cpi	r21, 0xFF	; 255
    2b70:	71 f0       	breq	.+28     	;  0x2b8e
    2b72:	47 95       	ror	r20
    2b74:	88 0f       	add	r24, r24
    2b76:	97 fb       	bst	r25, 7
    2b78:	99 1f       	adc	r25, r25
    2b7a:	61 f0       	breq	.+24     	;  0x2b94
    2b7c:	9f 3f       	cpi	r25, 0xFF	; 255
    2b7e:	79 f0       	breq	.+30     	;  0x2b9e
    2b80:	87 95       	ror	r24
    2b82:	08 95       	ret
    2b84:	12 16       	cp	r1, r18
    2b86:	13 06       	cpc	r1, r19
    2b88:	14 06       	cpc	r1, r20
    2b8a:	55 1f       	adc	r21, r21
    2b8c:	f2 cf       	rjmp	.-28     	;  0x2b72
    2b8e:	46 95       	lsr	r20
    2b90:	f1 df       	rcall	.-30     	;  0x2b74
    2b92:	08 c0       	rjmp	.+16     	;  0x2ba4
    2b94:	16 16       	cp	r1, r22
    2b96:	17 06       	cpc	r1, r23
    2b98:	18 06       	cpc	r1, r24
    2b9a:	99 1f       	adc	r25, r25
    2b9c:	f1 cf       	rjmp	.-30     	;  0x2b80
    2b9e:	86 95       	lsr	r24
    2ba0:	71 05       	cpc	r23, r1
    2ba2:	61 05       	cpc	r22, r1
    2ba4:	08 94       	sec
    2ba6:	08 95       	ret
    2ba8:	e8 94       	clt
    2baa:	bb 27       	eor	r27, r27
    2bac:	66 27       	eor	r22, r22
    2bae:	77 27       	eor	r23, r23
    2bb0:	cb 01       	movw	r24, r22
    2bb2:	97 f9       	bld	r25, 7
    2bb4:	08 95       	ret
    2bb6:	8a df       	rcall	.-236    	;  0x2acc
    2bb8:	08 f4       	brcc	.+2      	;  0x2bbc
    2bba:	8f ef       	ldi	r24, 0xFF	; 255
    2bbc:	08 95       	ret
    2bbe:	0b d0       	rcall	.+22     	;  0x2bd6
    2bc0:	c0 cf       	rjmp	.-128    	;  0x2b42
    2bc2:	b1 df       	rcall	.-158    	;  0x2b26
    2bc4:	28 f0       	brcs	.+10     	;  0x2bd0
    2bc6:	b6 df       	rcall	.-148    	;  0x2b34
    2bc8:	18 f0       	brcs	.+6      	;  0x2bd0
    2bca:	95 23       	and	r25, r21
    2bcc:	09 f0       	breq	.+2      	;  0x2bd0
    2bce:	a2 cf       	rjmp	.-188    	;  0x2b14
    2bd0:	a7 cf       	rjmp	.-178    	;  0x2b20
    2bd2:	11 24       	eor	r1, r1
    2bd4:	ea cf       	rjmp	.-44     	;  0x2baa
    2bd6:	c6 df       	rcall	.-116    	;  0x2b64
    2bd8:	a0 f3       	brcs	.-24     	;  0x2bc2
    2bda:	95 9f       	mul	r25, r21
    2bdc:	d1 f3       	breq	.-12     	;  0x2bd2
    2bde:	95 0f       	add	r25, r21
    2be0:	50 e0       	ldi	r21, 0x00	; 0
    2be2:	55 1f       	adc	r21, r21
    2be4:	62 9f       	mul	r22, r18
    2be6:	f0 01       	movw	r30, r0
    2be8:	72 9f       	mul	r23, r18
    2bea:	bb 27       	eor	r27, r27
    2bec:	f0 0d       	add	r31, r0
    2bee:	b1 1d       	adc	r27, r1
    2bf0:	63 9f       	mul	r22, r19
    2bf2:	aa 27       	eor	r26, r26
    2bf4:	f0 0d       	add	r31, r0
    2bf6:	b1 1d       	adc	r27, r1
    2bf8:	aa 1f       	adc	r26, r26
    2bfa:	64 9f       	mul	r22, r20
    2bfc:	66 27       	eor	r22, r22
    2bfe:	b0 0d       	add	r27, r0
    2c00:	a1 1d       	adc	r26, r1
    2c02:	66 1f       	adc	r22, r22
    2c04:	82 9f       	mul	r24, r18
    2c06:	22 27       	eor	r18, r18
    2c08:	b0 0d       	add	r27, r0
    2c0a:	a1 1d       	adc	r26, r1
    2c0c:	62 1f       	adc	r22, r18
    2c0e:	73 9f       	mul	r23, r19
    2c10:	b0 0d       	add	r27, r0
    2c12:	a1 1d       	adc	r26, r1
    2c14:	62 1f       	adc	r22, r18
    2c16:	83 9f       	mul	r24, r19
    2c18:	a0 0d       	add	r26, r0
    2c1a:	61 1d       	adc	r22, r1
    2c1c:	22 1f       	adc	r18, r18
    2c1e:	74 9f       	mul	r23, r20
    2c20:	33 27       	eor	r19, r19
    2c22:	a0 0d       	add	r26, r0
    2c24:	61 1d       	adc	r22, r1
    2c26:	23 1f       	adc	r18, r19
    2c28:	84 9f       	mul	r24, r20
    2c2a:	60 0d       	add	r22, r0
    2c2c:	21 1d       	adc	r18, r1
    2c2e:	82 2f       	mov	r24, r18
    2c30:	76 2f       	mov	r23, r22
    2c32:	6a 2f       	mov	r22, r26
    2c34:	11 24       	eor	r1, r1
    2c36:	9f 57       	subi	r25, 0x7F	; 127
    2c38:	50 40       	sbci	r21, 0x00	; 0
    2c3a:	8a f0       	brmi	.+34     	;  0x2c5e
    2c3c:	e1 f0       	breq	.+56     	;  0x2c76
    2c3e:	88 23       	and	r24, r24
    2c40:	4a f0       	brmi	.+18     	;  0x2c54
    2c42:	ee 0f       	add	r30, r30
    2c44:	ff 1f       	adc	r31, r31
    2c46:	bb 1f       	adc	r27, r27
    2c48:	66 1f       	adc	r22, r22
    2c4a:	77 1f       	adc	r23, r23
    2c4c:	88 1f       	adc	r24, r24
    2c4e:	91 50       	subi	r25, 0x01	; 1
    2c50:	50 40       	sbci	r21, 0x00	; 0
    2c52:	a9 f7       	brne	.-22     	;  0x2c3e
    2c54:	9e 3f       	cpi	r25, 0xFE	; 254
    2c56:	51 05       	cpc	r21, r1
    2c58:	70 f0       	brcs	.+28     	;  0x2c76
    2c5a:	5c cf       	rjmp	.-328    	;  0x2b14
    2c5c:	a6 cf       	rjmp	.-180    	;  0x2baa
    2c5e:	5f 3f       	cpi	r21, 0xFF	; 255
    2c60:	ec f3       	brlt	.-6      	;  0x2c5c
    2c62:	98 3e       	cpi	r25, 0xE8	; 232
    2c64:	dc f3       	brlt	.-10     	;  0x2c5c
    2c66:	86 95       	lsr	r24
    2c68:	77 95       	ror	r23
    2c6a:	67 95       	ror	r22
    2c6c:	b7 95       	ror	r27
    2c6e:	f7 95       	ror	r31
    2c70:	e7 95       	ror	r30
    2c72:	9f 5f       	subi	r25, 0xFF	; 255
    2c74:	c1 f7       	brne	.-16     	;  0x2c66
    2c76:	fe 2b       	or	r31, r30
    2c78:	88 0f       	add	r24, r24
    2c7a:	91 1d       	adc	r25, r1
    2c7c:	96 95       	lsr	r25
    2c7e:	87 95       	ror	r24
    2c80:	97 f9       	bld	r25, 7
    2c82:	08 95       	ret
    2c84:	97 fb       	bst	r25, 7
    2c86:	07 2e       	mov	r0, r23
    2c88:	16 f4       	brtc	.+4      	;  0x2c8e
    2c8a:	00 94       	com	r0
    2c8c:	07 d0       	rcall	.+14     	;  0x2c9c
    2c8e:	77 fd       	sbrc	r23, 7
    2c90:	09 d0       	rcall	.+18     	;  0x2ca4
    2c92:	0e 94 78 16 	call	0x2cf0	;  0x2cf0
    2c96:	07 fc       	sbrc	r0, 7
    2c98:	05 d0       	rcall	.+10     	;  0x2ca4
    2c9a:	3e f4       	brtc	.+14     	;  0x2caa
    2c9c:	90 95       	com	r25
    2c9e:	81 95       	neg	r24
    2ca0:	9f 4f       	sbci	r25, 0xFF	; 255
    2ca2:	08 95       	ret
    2ca4:	70 95       	com	r23
    2ca6:	61 95       	neg	r22
    2ca8:	7f 4f       	sbci	r23, 0xFF	; 255
    2caa:	08 95       	ret
    2cac:	a1 e2       	ldi	r26, 0x21	; 33
    2cae:	1a 2e       	mov	r1, r26
    2cb0:	aa 1b       	sub	r26, r26
    2cb2:	bb 1b       	sub	r27, r27
    2cb4:	fd 01       	movw	r30, r26
    2cb6:	0d c0       	rjmp	.+26     	;  0x2cd2
    2cb8:	aa 1f       	adc	r26, r26
    2cba:	bb 1f       	adc	r27, r27
    2cbc:	ee 1f       	adc	r30, r30
    2cbe:	ff 1f       	adc	r31, r31
    2cc0:	a2 17       	cp	r26, r18
    2cc2:	b3 07       	cpc	r27, r19
    2cc4:	e4 07       	cpc	r30, r20
    2cc6:	f5 07       	cpc	r31, r21
    2cc8:	20 f0       	brcs	.+8      	;  0x2cd2
    2cca:	a2 1b       	sub	r26, r18
    2ccc:	b3 0b       	sbc	r27, r19
    2cce:	e4 0b       	sbc	r30, r20
    2cd0:	f5 0b       	sbc	r31, r21
    2cd2:	66 1f       	adc	r22, r22
    2cd4:	77 1f       	adc	r23, r23
    2cd6:	88 1f       	adc	r24, r24
    2cd8:	99 1f       	adc	r25, r25
    2cda:	1a 94       	dec	r1
    2cdc:	69 f7       	brne	.-38     	;  0x2cb8
    2cde:	60 95       	com	r22
    2ce0:	70 95       	com	r23
    2ce2:	80 95       	com	r24
    2ce4:	90 95       	com	r25
    2ce6:	9b 01       	movw	r18, r22
    2ce8:	ac 01       	movw	r20, r24
    2cea:	bd 01       	movw	r22, r26
    2cec:	cf 01       	movw	r24, r30
    2cee:	08 95       	ret
    2cf0:	aa 1b       	sub	r26, r26
    2cf2:	bb 1b       	sub	r27, r27
    2cf4:	51 e1       	ldi	r21, 0x11	; 17
    2cf6:	07 c0       	rjmp	.+14     	;  0x2d06
    2cf8:	aa 1f       	adc	r26, r26
    2cfa:	bb 1f       	adc	r27, r27
    2cfc:	a6 17       	cp	r26, r22
    2cfe:	b7 07       	cpc	r27, r23
    2d00:	10 f0       	brcs	.+4      	;  0x2d06
    2d02:	a6 1b       	sub	r26, r22
    2d04:	b7 0b       	sbc	r27, r23
    2d06:	88 1f       	adc	r24, r24
    2d08:	99 1f       	adc	r25, r25
    2d0a:	5a 95       	dec	r21
    2d0c:	a9 f7       	brne	.-22     	;  0x2cf8
    2d0e:	80 95       	com	r24
    2d10:	90 95       	com	r25
    2d12:	bc 01       	movw	r22, r24
    2d14:	cd 01       	movw	r24, r26
    2d16:	08 95       	ret
    2d18:	ee 0f       	add	r30, r30
    2d1a:	ff 1f       	adc	r31, r31
    2d1c:	05 90       	lpm	r0, Z+
    2d1e:	f4 91       	lpm	r31, Z
    2d20:	e0 2d       	mov	r30, r0
    2d22:	09 94       	ijmp
    2d24:	4a e9       	ldi	r20, 0x9A	; 154
    2d26:	52 e0       	ldi	r21, 0x02	; 2
    2d28:	0e 94 bb 16 	call	0x2d76	;  0x2d76
    2d2c:	08 95       	ret
    2d2e:	fb 01       	movw	r30, r22
    2d30:	dc 01       	movw	r26, r24
    2d32:	01 90       	ld	r0, Z+
    2d34:	0d 92       	st	X+, r0
    2d36:	00 20       	and	r0, r0
    2d38:	e1 f7       	brne	.-8      	;  0x2d32
    2d3a:	08 95       	ret
    2d3c:	fb 01       	movw	r30, r22
    2d3e:	dc 01       	movw	r26, r24
    2d40:	41 50       	subi	r20, 0x01	; 1
    2d42:	50 40       	sbci	r21, 0x00	; 0
    2d44:	30 f0       	brcs	.+12     	;  0x2d52
    2d46:	8d 91       	ld	r24, X+
    2d48:	01 90       	ld	r0, Z+
    2d4a:	80 19       	sub	r24, r0
    2d4c:	19 f4       	brne	.+6      	;  0x2d54
    2d4e:	00 20       	and	r0, r0
    2d50:	b9 f7       	brne	.-18     	;  0x2d40
    2d52:	88 1b       	sub	r24, r24
    2d54:	99 0b       	sbc	r25, r25
    2d56:	08 95       	ret
    2d58:	fb 01       	movw	r30, r22
    2d5a:	dc 01       	movw	r26, r24
    2d5c:	41 50       	subi	r20, 0x01	; 1
    2d5e:	50 40       	sbci	r21, 0x00	; 0
    2d60:	48 f0       	brcs	.+18     	;  0x2d74
    2d62:	01 90       	ld	r0, Z+
    2d64:	0d 92       	st	X+, r0
    2d66:	00 20       	and	r0, r0
    2d68:	c9 f7       	brne	.-14     	;  0x2d5c
    2d6a:	01 c0       	rjmp	.+2      	;  0x2d6e
    2d6c:	1d 92       	st	X+, r1
    2d6e:	41 50       	subi	r20, 0x01	; 1
    2d70:	50 40       	sbci	r21, 0x00	; 0
    2d72:	e0 f7       	brcc	.-8      	;  0x2d6c
    2d74:	08 95       	ret
    2d76:	fa 01       	movw	r30, r20
    2d78:	a1 91       	ld	r26, Z+
    2d7a:	b0 81       	ld	r27, Z
    2d7c:	00 97       	sbiw	r24, 0x00	; 0
    2d7e:	19 f4       	brne	.+6      	;  0x2d86
    2d80:	10 97       	sbiw	r26, 0x00	; 0
    2d82:	e1 f0       	breq	.+56     	;  0x2dbc
    2d84:	cd 01       	movw	r24, r26
    2d86:	dc 01       	movw	r26, r24
    2d88:	cd 01       	movw	r24, r26
    2d8a:	0d 90       	ld	r0, X+
    2d8c:	00 20       	and	r0, r0
    2d8e:	11 f4       	brne	.+4      	;  0x2d94
    2d90:	c0 01       	movw	r24, r0
    2d92:	13 c0       	rjmp	.+38     	;  0x2dba
    2d94:	fb 01       	movw	r30, r22
    2d96:	21 91       	ld	r18, Z+
    2d98:	22 23       	and	r18, r18
    2d9a:	19 f0       	breq	.+6      	;  0x2da2
    2d9c:	20 15       	cp	r18, r0
    2d9e:	d9 f7       	brne	.-10     	;  0x2d96
    2da0:	f3 cf       	rjmp	.-26     	;  0x2d88
    2da2:	fb 01       	movw	r30, r22
    2da4:	21 91       	ld	r18, Z+
    2da6:	20 15       	cp	r18, r0
    2da8:	19 f4       	brne	.+6      	;  0x2db0
    2daa:	1e 92       	st	-X, r1
    2dac:	11 96       	adiw	r26, 0x01	; 1
    2dae:	06 c0       	rjmp	.+12     	;  0x2dbc
    2db0:	22 23       	and	r18, r18
    2db2:	c1 f7       	brne	.-16     	;  0x2da4
    2db4:	0d 90       	ld	r0, X+
    2db6:	00 20       	and	r0, r0
    2db8:	a1 f7       	brne	.-24     	;  0x2da2
    2dba:	d0 01       	movw	r26, r0
    2dbc:	fa 01       	movw	r30, r20
    2dbe:	a1 93       	st	Z+, r26
    2dc0:	b0 83       	st	Z, r27
    2dc2:	08 95       	ret
    2dc4:	ae e0       	ldi	r26, 0x0E	; 14
    2dc6:	b0 e0       	ldi	r27, 0x00	; 0
    2dc8:	e8 ee       	ldi	r30, 0xE8	; 232
    2dca:	f6 e1       	ldi	r31, 0x16	; 22
    2dcc:	0c 94 8a 19 	jmp	0x3314	;  0x3314
    2dd0:	0d 89       	ldd	r16, Y+21	; 0x15
    2dd2:	1e 89       	ldd	r17, Y+22	; 0x16
    2dd4:	86 e0       	ldi	r24, 0x06	; 6
    2dd6:	8c 83       	std	Y+4, r24	; 0x04
    2dd8:	1a 83       	std	Y+2, r17	; 0x02
    2dda:	09 83       	std	Y+1, r16	; 0x01
    2ddc:	8f ef       	ldi	r24, 0xFF	; 255
    2dde:	9f e7       	ldi	r25, 0x7F	; 127
    2de0:	9e 83       	std	Y+6, r25	; 0x06
    2de2:	8d 83       	std	Y+5, r24	; 0x05
    2de4:	ae 01       	movw	r20, r28
    2de6:	47 5e       	subi	r20, 0xE7	; 231
    2de8:	5f 4f       	sbci	r21, 0xFF	; 255
    2dea:	6f 89       	ldd	r22, Y+23	; 0x17
    2dec:	78 8d       	ldd	r23, Y+24	; 0x18
    2dee:	ce 01       	movw	r24, r28
    2df0:	01 96       	adiw	r24, 0x01	; 1
    2df2:	0e 94 04 17 	call	0x2e08	;  0x2e08
    2df6:	ef 81       	ldd	r30, Y+7	; 0x07
    2df8:	f8 85       	ldd	r31, Y+8	; 0x08
    2dfa:	e0 0f       	add	r30, r16
    2dfc:	f1 1f       	adc	r31, r17
    2dfe:	10 82       	st	Z, r1
    2e00:	2e 96       	adiw	r28, 0x0e	; 14
    2e02:	e4 e0       	ldi	r30, 0x04	; 4
    2e04:	0c 94 a6 19 	jmp	0x334c	;  0x334c
    2e08:	ac e0       	ldi	r26, 0x0C	; 12
    2e0a:	b0 e0       	ldi	r27, 0x00	; 0
    2e0c:	ea e0       	ldi	r30, 0x0A	; 10
    2e0e:	f7 e1       	ldi	r31, 0x17	; 23
    2e10:	0c 94 7c 19 	jmp	0x32f8	;  0x32f8
    2e14:	7c 01       	movw	r14, r24
    2e16:	6b 01       	movw	r12, r22
    2e18:	8a 01       	movw	r16, r20
    2e1a:	fc 01       	movw	r30, r24
    2e1c:	17 82       	std	Z+7, r1	; 0x07
    2e1e:	16 82       	std	Z+6, r1	; 0x06
    2e20:	83 81       	ldd	r24, Z+3	; 0x03
    2e22:	81 ff       	sbrs	r24, 1
    2e24:	bd c1       	rjmp	.+890    	;  0x31a0
    2e26:	ce 01       	movw	r24, r28
    2e28:	01 96       	adiw	r24, 0x01	; 1
    2e2a:	4c 01       	movw	r8, r24
    2e2c:	f7 01       	movw	r30, r14
    2e2e:	93 81       	ldd	r25, Z+3	; 0x03
    2e30:	f6 01       	movw	r30, r12
    2e32:	93 fd       	sbrc	r25, 3
    2e34:	85 91       	lpm	r24, Z+
    2e36:	93 ff       	sbrs	r25, 3
    2e38:	81 91       	ld	r24, Z+
    2e3a:	6f 01       	movw	r12, r30
    2e3c:	88 23       	and	r24, r24
    2e3e:	09 f4       	brne	.+2      	;  0x2e42
    2e40:	ab c1       	rjmp	.+854    	;  0x3198
    2e42:	85 32       	cpi	r24, 0x25	; 37
    2e44:	39 f4       	brne	.+14     	;  0x2e54
    2e46:	93 fd       	sbrc	r25, 3
    2e48:	85 91       	lpm	r24, Z+
    2e4a:	93 ff       	sbrs	r25, 3
    2e4c:	81 91       	ld	r24, Z+
    2e4e:	6f 01       	movw	r12, r30
    2e50:	85 32       	cpi	r24, 0x25	; 37
    2e52:	29 f4       	brne	.+10     	;  0x2e5e
    2e54:	b7 01       	movw	r22, r14
    2e56:	90 e0       	ldi	r25, 0x00	; 0
    2e58:	0e 94 ec 18 	call	0x31d8	;  0x31d8
    2e5c:	e7 cf       	rjmp	.-50     	;  0x2e2c
    2e5e:	51 2c       	mov	r5, r1
    2e60:	31 2c       	mov	r3, r1
    2e62:	20 e0       	ldi	r18, 0x00	; 0
    2e64:	20 32       	cpi	r18, 0x20	; 32
    2e66:	a0 f4       	brcc	.+40     	;  0x2e90
    2e68:	8b 32       	cpi	r24, 0x2B	; 43
    2e6a:	69 f0       	breq	.+26     	;  0x2e86
    2e6c:	30 f4       	brcc	.+12     	;  0x2e7a
    2e6e:	80 32       	cpi	r24, 0x20	; 32
    2e70:	59 f0       	breq	.+22     	;  0x2e88
    2e72:	83 32       	cpi	r24, 0x23	; 35
    2e74:	69 f4       	brne	.+26     	;  0x2e90
    2e76:	20 61       	ori	r18, 0x10	; 16
    2e78:	2c c0       	rjmp	.+88     	;  0x2ed2
    2e7a:	8d 32       	cpi	r24, 0x2D	; 45
    2e7c:	39 f0       	breq	.+14     	;  0x2e8c
    2e7e:	80 33       	cpi	r24, 0x30	; 48
    2e80:	39 f4       	brne	.+14     	;  0x2e90
    2e82:	21 60       	ori	r18, 0x01	; 1
    2e84:	26 c0       	rjmp	.+76     	;  0x2ed2
    2e86:	22 60       	ori	r18, 0x02	; 2
    2e88:	24 60       	ori	r18, 0x04	; 4
    2e8a:	23 c0       	rjmp	.+70     	;  0x2ed2
    2e8c:	28 60       	ori	r18, 0x08	; 8
    2e8e:	21 c0       	rjmp	.+66     	;  0x2ed2
    2e90:	27 fd       	sbrc	r18, 7
    2e92:	27 c0       	rjmp	.+78     	;  0x2ee2
    2e94:	30 ed       	ldi	r19, 0xD0	; 208
    2e96:	38 0f       	add	r19, r24
    2e98:	3a 30       	cpi	r19, 0x0A	; 10
    2e9a:	78 f4       	brcc	.+30     	;  0x2eba
    2e9c:	26 ff       	sbrs	r18, 6
    2e9e:	06 c0       	rjmp	.+12     	;  0x2eac
    2ea0:	fa e0       	ldi	r31, 0x0A	; 10
    2ea2:	5f 9e       	mul	r5, r31
    2ea4:	30 0d       	add	r19, r0
    2ea6:	11 24       	eor	r1, r1
    2ea8:	53 2e       	mov	r5, r19
    2eaa:	13 c0       	rjmp	.+38     	;  0x2ed2
    2eac:	8a e0       	ldi	r24, 0x0A	; 10
    2eae:	38 9e       	mul	r3, r24
    2eb0:	30 0d       	add	r19, r0
    2eb2:	11 24       	eor	r1, r1
    2eb4:	33 2e       	mov	r3, r19
    2eb6:	20 62       	ori	r18, 0x20	; 32
    2eb8:	0c c0       	rjmp	.+24     	;  0x2ed2
    2eba:	8e 32       	cpi	r24, 0x2E	; 46
    2ebc:	21 f4       	brne	.+8      	;  0x2ec6
    2ebe:	26 fd       	sbrc	r18, 6
    2ec0:	6b c1       	rjmp	.+726    	;  0x3198
    2ec2:	20 64       	ori	r18, 0x40	; 64
    2ec4:	06 c0       	rjmp	.+12     	;  0x2ed2
    2ec6:	8c 36       	cpi	r24, 0x6C	; 108
    2ec8:	11 f4       	brne	.+4      	;  0x2ece
    2eca:	20 68       	ori	r18, 0x80	; 128
    2ecc:	02 c0       	rjmp	.+4      	;  0x2ed2
    2ece:	88 36       	cpi	r24, 0x68	; 104
    2ed0:	41 f4       	brne	.+16     	;  0x2ee2
    2ed2:	f6 01       	movw	r30, r12
    2ed4:	93 fd       	sbrc	r25, 3
    2ed6:	85 91       	lpm	r24, Z+
    2ed8:	93 ff       	sbrs	r25, 3
    2eda:	81 91       	ld	r24, Z+
    2edc:	6f 01       	movw	r12, r30
    2ede:	81 11       	cpse	r24, r1
    2ee0:	c1 cf       	rjmp	.-126    	;  0x2e64
    2ee2:	98 2f       	mov	r25, r24
    2ee4:	9f 7d       	andi	r25, 0xDF	; 223
    2ee6:	95 54       	subi	r25, 0x45	; 69
    2ee8:	93 30       	cpi	r25, 0x03	; 3
    2eea:	28 f4       	brcc	.+10     	;  0x2ef6
    2eec:	0c 5f       	subi	r16, 0xFC	; 252
    2eee:	1f 4f       	sbci	r17, 0xFF	; 255
    2ef0:	ff e3       	ldi	r31, 0x3F	; 63
    2ef2:	f9 83       	std	Y+1, r31	; 0x01
    2ef4:	0d c0       	rjmp	.+26     	;  0x2f10
    2ef6:	83 36       	cpi	r24, 0x63	; 99
    2ef8:	31 f0       	breq	.+12     	;  0x2f06
    2efa:	83 37       	cpi	r24, 0x73	; 115
    2efc:	71 f0       	breq	.+28     	;  0x2f1a
    2efe:	83 35       	cpi	r24, 0x53	; 83
    2f00:	09 f0       	breq	.+2      	;  0x2f04
    2f02:	5b c0       	rjmp	.+182    	;  0x2fba
    2f04:	22 c0       	rjmp	.+68     	;  0x2f4a
    2f06:	f8 01       	movw	r30, r16
    2f08:	80 81       	ld	r24, Z
    2f0a:	89 83       	std	Y+1, r24	; 0x01
    2f0c:	0e 5f       	subi	r16, 0xFE	; 254
    2f0e:	1f 4f       	sbci	r17, 0xFF	; 255
    2f10:	44 24       	eor	r4, r4
    2f12:	43 94       	inc	r4
    2f14:	51 2c       	mov	r5, r1
    2f16:	54 01       	movw	r10, r8
    2f18:	15 c0       	rjmp	.+42     	;  0x2f44
    2f1a:	38 01       	movw	r6, r16
    2f1c:	f2 e0       	ldi	r31, 0x02	; 2
    2f1e:	6f 0e       	add	r6, r31
    2f20:	71 1c       	adc	r7, r1
    2f22:	f8 01       	movw	r30, r16
    2f24:	a0 80       	ld	r10, Z
    2f26:	b1 80       	ldd	r11, Z+1	; 0x01
    2f28:	26 ff       	sbrs	r18, 6
    2f2a:	03 c0       	rjmp	.+6      	;  0x2f32
    2f2c:	65 2d       	mov	r22, r5
    2f2e:	70 e0       	ldi	r23, 0x00	; 0
    2f30:	02 c0       	rjmp	.+4      	;  0x2f36
    2f32:	6f ef       	ldi	r22, 0xFF	; 255
    2f34:	7f ef       	ldi	r23, 0xFF	; 255
    2f36:	c5 01       	movw	r24, r10
    2f38:	2c 87       	std	Y+12, r18	; 0x0c
    2f3a:	0e 94 e1 18 	call	0x31c2	;  0x31c2
    2f3e:	2c 01       	movw	r4, r24
    2f40:	83 01       	movw	r16, r6
    2f42:	2c 85       	ldd	r18, Y+12	; 0x0c
    2f44:	2f 77       	andi	r18, 0x7F	; 127
    2f46:	22 2e       	mov	r2, r18
    2f48:	17 c0       	rjmp	.+46     	;  0x2f78
    2f4a:	38 01       	movw	r6, r16
    2f4c:	f2 e0       	ldi	r31, 0x02	; 2
    2f4e:	6f 0e       	add	r6, r31
    2f50:	71 1c       	adc	r7, r1
    2f52:	f8 01       	movw	r30, r16
    2f54:	a0 80       	ld	r10, Z
    2f56:	b1 80       	ldd	r11, Z+1	; 0x01
    2f58:	26 ff       	sbrs	r18, 6
    2f5a:	03 c0       	rjmp	.+6      	;  0x2f62
    2f5c:	65 2d       	mov	r22, r5
    2f5e:	70 e0       	ldi	r23, 0x00	; 0
    2f60:	02 c0       	rjmp	.+4      	;  0x2f66
    2f62:	6f ef       	ldi	r22, 0xFF	; 255
    2f64:	7f ef       	ldi	r23, 0xFF	; 255
    2f66:	c5 01       	movw	r24, r10
    2f68:	2c 87       	std	Y+12, r18	; 0x0c
    2f6a:	0e 94 d6 18 	call	0x31ac	;  0x31ac
    2f6e:	2c 01       	movw	r4, r24
    2f70:	2c 85       	ldd	r18, Y+12	; 0x0c
    2f72:	20 68       	ori	r18, 0x80	; 128
    2f74:	22 2e       	mov	r2, r18
    2f76:	83 01       	movw	r16, r6
    2f78:	23 fc       	sbrc	r2, 3
    2f7a:	1b c0       	rjmp	.+54     	;  0x2fb2
    2f7c:	83 2d       	mov	r24, r3
    2f7e:	90 e0       	ldi	r25, 0x00	; 0
    2f80:	48 16       	cp	r4, r24
    2f82:	59 06       	cpc	r5, r25
    2f84:	b0 f4       	brcc	.+44     	;  0x2fb2
    2f86:	b7 01       	movw	r22, r14
    2f88:	80 e2       	ldi	r24, 0x20	; 32
    2f8a:	90 e0       	ldi	r25, 0x00	; 0
    2f8c:	0e 94 ec 18 	call	0x31d8	;  0x31d8
    2f90:	3a 94       	dec	r3
    2f92:	f4 cf       	rjmp	.-24     	;  0x2f7c
    2f94:	f5 01       	movw	r30, r10
    2f96:	27 fc       	sbrc	r2, 7
    2f98:	85 91       	lpm	r24, Z+
    2f9a:	27 fe       	sbrs	r2, 7
    2f9c:	81 91       	ld	r24, Z+
    2f9e:	5f 01       	movw	r10, r30
    2fa0:	b7 01       	movw	r22, r14
    2fa2:	90 e0       	ldi	r25, 0x00	; 0
    2fa4:	0e 94 ec 18 	call	0x31d8	;  0x31d8
    2fa8:	31 10       	cpse	r3, r1
    2faa:	3a 94       	dec	r3
    2fac:	f1 e0       	ldi	r31, 0x01	; 1
    2fae:	4f 1a       	sub	r4, r31
    2fb0:	51 08       	sbc	r5, r1
    2fb2:	41 14       	cp	r4, r1
    2fb4:	51 04       	cpc	r5, r1
    2fb6:	71 f7       	brne	.-36     	;  0x2f94
    2fb8:	e5 c0       	rjmp	.+458    	;  0x3184
    2fba:	84 36       	cpi	r24, 0x64	; 100
    2fbc:	11 f0       	breq	.+4      	;  0x2fc2
    2fbe:	89 36       	cpi	r24, 0x69	; 105
    2fc0:	39 f5       	brne	.+78     	;  0x3010
    2fc2:	f8 01       	movw	r30, r16
    2fc4:	27 ff       	sbrs	r18, 7
    2fc6:	07 c0       	rjmp	.+14     	;  0x2fd6
    2fc8:	60 81       	ld	r22, Z
    2fca:	71 81       	ldd	r23, Z+1	; 0x01
    2fcc:	82 81       	ldd	r24, Z+2	; 0x02
    2fce:	93 81       	ldd	r25, Z+3	; 0x03
    2fd0:	0c 5f       	subi	r16, 0xFC	; 252
    2fd2:	1f 4f       	sbci	r17, 0xFF	; 255
    2fd4:	08 c0       	rjmp	.+16     	;  0x2fe6
    2fd6:	60 81       	ld	r22, Z
    2fd8:	71 81       	ldd	r23, Z+1	; 0x01
    2fda:	88 27       	eor	r24, r24
    2fdc:	77 fd       	sbrc	r23, 7
    2fde:	80 95       	com	r24
    2fe0:	98 2f       	mov	r25, r24
    2fe2:	0e 5f       	subi	r16, 0xFE	; 254
    2fe4:	1f 4f       	sbci	r17, 0xFF	; 255
    2fe6:	2f 76       	andi	r18, 0x6F	; 111
    2fe8:	b2 2e       	mov	r11, r18
    2fea:	97 ff       	sbrs	r25, 7
    2fec:	09 c0       	rjmp	.+18     	;  0x3000
    2fee:	90 95       	com	r25
    2ff0:	80 95       	com	r24
    2ff2:	70 95       	com	r23
    2ff4:	61 95       	neg	r22
    2ff6:	7f 4f       	sbci	r23, 0xFF	; 255
    2ff8:	8f 4f       	sbci	r24, 0xFF	; 255
    2ffa:	9f 4f       	sbci	r25, 0xFF	; 255
    2ffc:	20 68       	ori	r18, 0x80	; 128
    2ffe:	b2 2e       	mov	r11, r18
    3000:	2a e0       	ldi	r18, 0x0A	; 10
    3002:	30 e0       	ldi	r19, 0x00	; 0
    3004:	a4 01       	movw	r20, r8
    3006:	0e 94 1e 19 	call	0x323c	;  0x323c
    300a:	a8 2e       	mov	r10, r24
    300c:	a8 18       	sub	r10, r8
    300e:	44 c0       	rjmp	.+136    	;  0x3098
    3010:	85 37       	cpi	r24, 0x75	; 117
    3012:	29 f4       	brne	.+10     	;  0x301e
    3014:	2f 7e       	andi	r18, 0xEF	; 239
    3016:	b2 2e       	mov	r11, r18
    3018:	2a e0       	ldi	r18, 0x0A	; 10
    301a:	30 e0       	ldi	r19, 0x00	; 0
    301c:	25 c0       	rjmp	.+74     	;  0x3068
    301e:	f2 2f       	mov	r31, r18
    3020:	f9 7f       	andi	r31, 0xF9	; 249
    3022:	bf 2e       	mov	r11, r31
    3024:	8f 36       	cpi	r24, 0x6F	; 111
    3026:	c1 f0       	breq	.+48     	;  0x3058
    3028:	18 f4       	brcc	.+6      	;  0x3030
    302a:	88 35       	cpi	r24, 0x58	; 88
    302c:	79 f0       	breq	.+30     	;  0x304c
    302e:	b4 c0       	rjmp	.+360    	;  0x3198
    3030:	80 37       	cpi	r24, 0x70	; 112
    3032:	19 f0       	breq	.+6      	;  0x303a
    3034:	88 37       	cpi	r24, 0x78	; 120
    3036:	21 f0       	breq	.+8      	;  0x3040
    3038:	af c0       	rjmp	.+350    	;  0x3198
    303a:	2f 2f       	mov	r18, r31
    303c:	20 61       	ori	r18, 0x10	; 16
    303e:	b2 2e       	mov	r11, r18
    3040:	b4 fe       	sbrs	r11, 4
    3042:	0d c0       	rjmp	.+26     	;  0x305e
    3044:	8b 2d       	mov	r24, r11
    3046:	84 60       	ori	r24, 0x04	; 4
    3048:	b8 2e       	mov	r11, r24
    304a:	09 c0       	rjmp	.+18     	;  0x305e
    304c:	24 ff       	sbrs	r18, 4
    304e:	0a c0       	rjmp	.+20     	;  0x3064
    3050:	9f 2f       	mov	r25, r31
    3052:	96 60       	ori	r25, 0x06	; 6
    3054:	b9 2e       	mov	r11, r25
    3056:	06 c0       	rjmp	.+12     	;  0x3064
    3058:	28 e0       	ldi	r18, 0x08	; 8
    305a:	30 e0       	ldi	r19, 0x00	; 0
    305c:	05 c0       	rjmp	.+10     	;  0x3068
    305e:	20 e1       	ldi	r18, 0x10	; 16
    3060:	30 e0       	ldi	r19, 0x00	; 0
    3062:	02 c0       	rjmp	.+4      	;  0x3068
    3064:	20 e1       	ldi	r18, 0x10	; 16
    3066:	32 e0       	ldi	r19, 0x02	; 2
    3068:	f8 01       	movw	r30, r16
    306a:	b7 fe       	sbrs	r11, 7
    306c:	07 c0       	rjmp	.+14     	;  0x307c
    306e:	60 81       	ld	r22, Z
    3070:	71 81       	ldd	r23, Z+1	; 0x01
    3072:	82 81       	ldd	r24, Z+2	; 0x02
    3074:	93 81       	ldd	r25, Z+3	; 0x03
    3076:	0c 5f       	subi	r16, 0xFC	; 252
    3078:	1f 4f       	sbci	r17, 0xFF	; 255
    307a:	06 c0       	rjmp	.+12     	;  0x3088
    307c:	60 81       	ld	r22, Z
    307e:	71 81       	ldd	r23, Z+1	; 0x01
    3080:	80 e0       	ldi	r24, 0x00	; 0
    3082:	90 e0       	ldi	r25, 0x00	; 0
    3084:	0e 5f       	subi	r16, 0xFE	; 254
    3086:	1f 4f       	sbci	r17, 0xFF	; 255
    3088:	a4 01       	movw	r20, r8
    308a:	0e 94 1e 19 	call	0x323c	;  0x323c
    308e:	a8 2e       	mov	r10, r24
    3090:	a8 18       	sub	r10, r8
    3092:	fb 2d       	mov	r31, r11
    3094:	ff 77       	andi	r31, 0x7F	; 127
    3096:	bf 2e       	mov	r11, r31
    3098:	b6 fe       	sbrs	r11, 6
    309a:	0b c0       	rjmp	.+22     	;  0x30b2
    309c:	2b 2d       	mov	r18, r11
    309e:	2e 7f       	andi	r18, 0xFE	; 254
    30a0:	a5 14       	cp	r10, r5
    30a2:	50 f4       	brcc	.+20     	;  0x30b8
    30a4:	b4 fe       	sbrs	r11, 4
    30a6:	0a c0       	rjmp	.+20     	;  0x30bc
    30a8:	b2 fc       	sbrc	r11, 2
    30aa:	08 c0       	rjmp	.+16     	;  0x30bc
    30ac:	2b 2d       	mov	r18, r11
    30ae:	2e 7e       	andi	r18, 0xEE	; 238
    30b0:	05 c0       	rjmp	.+10     	;  0x30bc
    30b2:	7a 2c       	mov	r7, r10
    30b4:	2b 2d       	mov	r18, r11
    30b6:	03 c0       	rjmp	.+6      	;  0x30be
    30b8:	7a 2c       	mov	r7, r10
    30ba:	01 c0       	rjmp	.+2      	;  0x30be
    30bc:	75 2c       	mov	r7, r5
    30be:	24 ff       	sbrs	r18, 4
    30c0:	0d c0       	rjmp	.+26     	;  0x30dc
    30c2:	fe 01       	movw	r30, r28
    30c4:	ea 0d       	add	r30, r10
    30c6:	f1 1d       	adc	r31, r1
    30c8:	80 81       	ld	r24, Z
    30ca:	80 33       	cpi	r24, 0x30	; 48
    30cc:	11 f4       	brne	.+4      	;  0x30d2
    30ce:	29 7e       	andi	r18, 0xE9	; 233
    30d0:	09 c0       	rjmp	.+18     	;  0x30e4
    30d2:	22 ff       	sbrs	r18, 2
    30d4:	06 c0       	rjmp	.+12     	;  0x30e2
    30d6:	73 94       	inc	r7
    30d8:	73 94       	inc	r7
    30da:	04 c0       	rjmp	.+8      	;  0x30e4
    30dc:	82 2f       	mov	r24, r18
    30de:	86 78       	andi	r24, 0x86	; 134
    30e0:	09 f0       	breq	.+2      	;  0x30e4
    30e2:	73 94       	inc	r7
    30e4:	23 fd       	sbrc	r18, 3
    30e6:	13 c0       	rjmp	.+38     	;  0x310e
    30e8:	20 ff       	sbrs	r18, 0
    30ea:	06 c0       	rjmp	.+12     	;  0x30f8
    30ec:	5a 2c       	mov	r5, r10
    30ee:	73 14       	cp	r7, r3
    30f0:	18 f4       	brcc	.+6      	;  0x30f8
    30f2:	53 0c       	add	r5, r3
    30f4:	57 18       	sub	r5, r7
    30f6:	73 2c       	mov	r7, r3
    30f8:	73 14       	cp	r7, r3
    30fa:	68 f4       	brcc	.+26     	;  0x3116
    30fc:	b7 01       	movw	r22, r14
    30fe:	80 e2       	ldi	r24, 0x20	; 32
    3100:	90 e0       	ldi	r25, 0x00	; 0
    3102:	2c 87       	std	Y+12, r18	; 0x0c
    3104:	0e 94 ec 18 	call	0x31d8	;  0x31d8
    3108:	73 94       	inc	r7
    310a:	2c 85       	ldd	r18, Y+12	; 0x0c
    310c:	f5 cf       	rjmp	.-22     	;  0x30f8
    310e:	73 14       	cp	r7, r3
    3110:	10 f4       	brcc	.+4      	;  0x3116
    3112:	37 18       	sub	r3, r7
    3114:	01 c0       	rjmp	.+2      	;  0x3118
    3116:	31 2c       	mov	r3, r1
    3118:	24 ff       	sbrs	r18, 4
    311a:	12 c0       	rjmp	.+36     	;  0x3140
    311c:	b7 01       	movw	r22, r14
    311e:	80 e3       	ldi	r24, 0x30	; 48
    3120:	90 e0       	ldi	r25, 0x00	; 0
    3122:	2c 87       	std	Y+12, r18	; 0x0c
    3124:	0e 94 ec 18 	call	0x31d8	;  0x31d8
    3128:	2c 85       	ldd	r18, Y+12	; 0x0c
    312a:	22 ff       	sbrs	r18, 2
    312c:	17 c0       	rjmp	.+46     	;  0x315c
    312e:	21 ff       	sbrs	r18, 1
    3130:	03 c0       	rjmp	.+6      	;  0x3138
    3132:	88 e5       	ldi	r24, 0x58	; 88
    3134:	90 e0       	ldi	r25, 0x00	; 0
    3136:	02 c0       	rjmp	.+4      	;  0x313c
    3138:	88 e7       	ldi	r24, 0x78	; 120
    313a:	90 e0       	ldi	r25, 0x00	; 0
    313c:	b7 01       	movw	r22, r14
    313e:	0c c0       	rjmp	.+24     	;  0x3158
    3140:	82 2f       	mov	r24, r18
    3142:	86 78       	andi	r24, 0x86	; 134
    3144:	59 f0       	breq	.+22     	;  0x315c
    3146:	21 fd       	sbrc	r18, 1
    3148:	02 c0       	rjmp	.+4      	;  0x314e
    314a:	80 e2       	ldi	r24, 0x20	; 32
    314c:	01 c0       	rjmp	.+2      	;  0x3150
    314e:	8b e2       	ldi	r24, 0x2B	; 43
    3150:	27 fd       	sbrc	r18, 7
    3152:	8d e2       	ldi	r24, 0x2D	; 45
    3154:	b7 01       	movw	r22, r14
    3156:	90 e0       	ldi	r25, 0x00	; 0
    3158:	0e 94 ec 18 	call	0x31d8	;  0x31d8
    315c:	a5 14       	cp	r10, r5
    315e:	38 f4       	brcc	.+14     	;  0x316e
    3160:	b7 01       	movw	r22, r14
    3162:	80 e3       	ldi	r24, 0x30	; 48
    3164:	90 e0       	ldi	r25, 0x00	; 0
    3166:	0e 94 ec 18 	call	0x31d8	;  0x31d8
    316a:	5a 94       	dec	r5
    316c:	f7 cf       	rjmp	.-18     	;  0x315c
    316e:	aa 94       	dec	r10
    3170:	f4 01       	movw	r30, r8
    3172:	ea 0d       	add	r30, r10
    3174:	f1 1d       	adc	r31, r1
    3176:	80 81       	ld	r24, Z
    3178:	b7 01       	movw	r22, r14
    317a:	90 e0       	ldi	r25, 0x00	; 0
    317c:	0e 94 ec 18 	call	0x31d8	;  0x31d8
    3180:	a1 10       	cpse	r10, r1
    3182:	f5 cf       	rjmp	.-22     	;  0x316e
    3184:	33 20       	and	r3, r3
    3186:	09 f4       	brne	.+2      	;  0x318a
    3188:	51 ce       	rjmp	.-862    	;  0x2e2c
    318a:	b7 01       	movw	r22, r14
    318c:	80 e2       	ldi	r24, 0x20	; 32
    318e:	90 e0       	ldi	r25, 0x00	; 0
    3190:	0e 94 ec 18 	call	0x31d8	;  0x31d8
    3194:	3a 94       	dec	r3
    3196:	f6 cf       	rjmp	.-20     	;  0x3184
    3198:	f7 01       	movw	r30, r14
    319a:	86 81       	ldd	r24, Z+6	; 0x06
    319c:	97 81       	ldd	r25, Z+7	; 0x07
    319e:	02 c0       	rjmp	.+4      	;  0x31a4
    31a0:	8f ef       	ldi	r24, 0xFF	; 255
    31a2:	9f ef       	ldi	r25, 0xFF	; 255
    31a4:	2c 96       	adiw	r28, 0x0c	; 12
    31a6:	e2 e1       	ldi	r30, 0x12	; 18
    31a8:	0c 94 98 19 	jmp	0x3330	;  0x3330
    31ac:	fc 01       	movw	r30, r24
    31ae:	05 90       	lpm	r0, Z+
    31b0:	61 50       	subi	r22, 0x01	; 1
    31b2:	70 40       	sbci	r23, 0x00	; 0
    31b4:	01 10       	cpse	r0, r1
    31b6:	d8 f7       	brcc	.-10     	;  0x31ae
    31b8:	80 95       	com	r24
    31ba:	90 95       	com	r25
    31bc:	8e 0f       	add	r24, r30
    31be:	9f 1f       	adc	r25, r31
    31c0:	08 95       	ret
    31c2:	fc 01       	movw	r30, r24
    31c4:	61 50       	subi	r22, 0x01	; 1
    31c6:	70 40       	sbci	r23, 0x00	; 0
    31c8:	01 90       	ld	r0, Z+
    31ca:	01 10       	cpse	r0, r1
    31cc:	d8 f7       	brcc	.-10     	;  0x31c4
    31ce:	80 95       	com	r24
    31d0:	90 95       	com	r25
    31d2:	8e 0f       	add	r24, r30
    31d4:	9f 1f       	adc	r25, r31
    31d6:	08 95       	ret
    31d8:	0f 93       	push	r16
    31da:	1f 93       	push	r17
    31dc:	cf 93       	push	r28
    31de:	df 93       	push	r29
    31e0:	18 2f       	mov	r17, r24
    31e2:	09 2f       	mov	r16, r25
    31e4:	eb 01       	movw	r28, r22
    31e6:	8b 81       	ldd	r24, Y+3	; 0x03
    31e8:	81 fd       	sbrc	r24, 1
    31ea:	03 c0       	rjmp	.+6      	;  0x31f2
    31ec:	8f ef       	ldi	r24, 0xFF	; 255
    31ee:	9f ef       	ldi	r25, 0xFF	; 255
    31f0:	20 c0       	rjmp	.+64     	;  0x3232
    31f2:	82 ff       	sbrs	r24, 2
    31f4:	10 c0       	rjmp	.+32     	;  0x3216
    31f6:	4e 81       	ldd	r20, Y+6	; 0x06
    31f8:	5f 81       	ldd	r21, Y+7	; 0x07
    31fa:	2c 81       	ldd	r18, Y+4	; 0x04
    31fc:	3d 81       	ldd	r19, Y+5	; 0x05
    31fe:	42 17       	cp	r20, r18
    3200:	53 07       	cpc	r21, r19
    3202:	7c f4       	brge	.+30     	;  0x3222
    3204:	e8 81       	ld	r30, Y
    3206:	f9 81       	ldd	r31, Y+1	; 0x01
    3208:	9f 01       	movw	r18, r30
    320a:	2f 5f       	subi	r18, 0xFF	; 255
    320c:	3f 4f       	sbci	r19, 0xFF	; 255
    320e:	39 83       	std	Y+1, r19	; 0x01
    3210:	28 83       	st	Y, r18
    3212:	10 83       	st	Z, r17
    3214:	06 c0       	rjmp	.+12     	;  0x3222
    3216:	e8 85       	ldd	r30, Y+8	; 0x08
    3218:	f9 85       	ldd	r31, Y+9	; 0x09
    321a:	81 2f       	mov	r24, r17
    321c:	09 95       	icall
    321e:	89 2b       	or	r24, r25
    3220:	29 f7       	brne	.-54     	;  0x31ec
    3222:	2e 81       	ldd	r18, Y+6	; 0x06
    3224:	3f 81       	ldd	r19, Y+7	; 0x07
    3226:	2f 5f       	subi	r18, 0xFF	; 255
    3228:	3f 4f       	sbci	r19, 0xFF	; 255
    322a:	3f 83       	std	Y+7, r19	; 0x07
    322c:	2e 83       	std	Y+6, r18	; 0x06
    322e:	81 2f       	mov	r24, r17
    3230:	90 2f       	mov	r25, r16
    3232:	df 91       	pop	r29
    3234:	cf 91       	pop	r28
    3236:	1f 91       	pop	r17
    3238:	0f 91       	pop	r16
    323a:	08 95       	ret
    323c:	fa 01       	movw	r30, r20
    323e:	aa 27       	eor	r26, r26
    3240:	28 30       	cpi	r18, 0x08	; 8
    3242:	51 f1       	breq	.+84     	;  0x3298
    3244:	20 31       	cpi	r18, 0x10	; 16
    3246:	81 f1       	breq	.+96     	;  0x32a8
    3248:	e8 94       	clt
    324a:	6f 93       	push	r22
    324c:	6e 7f       	andi	r22, 0xFE	; 254
    324e:	6e 5f       	subi	r22, 0xFE	; 254
    3250:	7f 4f       	sbci	r23, 0xFF	; 255
    3252:	8f 4f       	sbci	r24, 0xFF	; 255
    3254:	9f 4f       	sbci	r25, 0xFF	; 255
    3256:	af 4f       	sbci	r26, 0xFF	; 255
    3258:	b1 e0       	ldi	r27, 0x01	; 1
    325a:	3e d0       	rcall	.+124    	;  0x32d8
    325c:	b4 e0       	ldi	r27, 0x04	; 4
    325e:	3c d0       	rcall	.+120    	;  0x32d8
    3260:	67 0f       	add	r22, r23
    3262:	78 1f       	adc	r23, r24
    3264:	89 1f       	adc	r24, r25
    3266:	9a 1f       	adc	r25, r26
    3268:	a1 1d       	adc	r26, r1
    326a:	68 0f       	add	r22, r24
    326c:	79 1f       	adc	r23, r25
    326e:	8a 1f       	adc	r24, r26
    3270:	91 1d       	adc	r25, r1
    3272:	a1 1d       	adc	r26, r1
    3274:	6a 0f       	add	r22, r26
    3276:	71 1d       	adc	r23, r1
    3278:	81 1d       	adc	r24, r1
    327a:	91 1d       	adc	r25, r1
    327c:	a1 1d       	adc	r26, r1
    327e:	20 d0       	rcall	.+64     	;  0x32c0
    3280:	09 f4       	brne	.+2      	;  0x3284
    3282:	68 94       	set
    3284:	3f 91       	pop	r19
    3286:	2a e0       	ldi	r18, 0x0A	; 10
    3288:	26 9f       	mul	r18, r22
    328a:	11 24       	eor	r1, r1
    328c:	30 19       	sub	r19, r0
    328e:	30 5d       	subi	r19, 0xD0	; 208
    3290:	31 93       	st	Z+, r19
    3292:	de f6       	brtc	.-74     	;  0x324a
    3294:	cf 01       	movw	r24, r30
    3296:	08 95       	ret
    3298:	46 2f       	mov	r20, r22
    329a:	47 70       	andi	r20, 0x07	; 7
    329c:	40 5d       	subi	r20, 0xD0	; 208
    329e:	41 93       	st	Z+, r20
    32a0:	b3 e0       	ldi	r27, 0x03	; 3
    32a2:	0f d0       	rcall	.+30     	;  0x32c2
    32a4:	c9 f7       	brne	.-14     	;  0x3298
    32a6:	f6 cf       	rjmp	.-20     	;  0x3294
    32a8:	46 2f       	mov	r20, r22
    32aa:	4f 70       	andi	r20, 0x0F	; 15
    32ac:	40 5d       	subi	r20, 0xD0	; 208
    32ae:	4a 33       	cpi	r20, 0x3A	; 58
    32b0:	18 f0       	brcs	.+6      	;  0x32b8
    32b2:	49 5d       	subi	r20, 0xD9	; 217
    32b4:	31 fd       	sbrc	r19, 1
    32b6:	40 52       	subi	r20, 0x20	; 32
    32b8:	41 93       	st	Z+, r20
    32ba:	02 d0       	rcall	.+4      	;  0x32c0
    32bc:	a9 f7       	brne	.-22     	;  0x32a8
    32be:	ea cf       	rjmp	.-44     	;  0x3294
    32c0:	b4 e0       	ldi	r27, 0x04	; 4
    32c2:	a6 95       	lsr	r26
    32c4:	97 95       	ror	r25
    32c6:	87 95       	ror	r24
    32c8:	77 95       	ror	r23
    32ca:	67 95       	ror	r22
    32cc:	ba 95       	dec	r27
    32ce:	c9 f7       	brne	.-14     	;  0x32c2
    32d0:	00 97       	sbiw	r24, 0x00	; 0
    32d2:	61 05       	cpc	r22, r1
    32d4:	71 05       	cpc	r23, r1
    32d6:	08 95       	ret
    32d8:	9b 01       	movw	r18, r22
    32da:	ac 01       	movw	r20, r24
    32dc:	0a 2e       	mov	r0, r26
    32de:	06 94       	lsr	r0
    32e0:	57 95       	ror	r21
    32e2:	47 95       	ror	r20
    32e4:	37 95       	ror	r19
    32e6:	27 95       	ror	r18
    32e8:	ba 95       	dec	r27
    32ea:	c9 f7       	brne	.-14     	;  0x32de
    32ec:	62 0f       	add	r22, r18
    32ee:	73 1f       	adc	r23, r19
    32f0:	84 1f       	adc	r24, r20
    32f2:	95 1f       	adc	r25, r21
    32f4:	a0 1d       	adc	r26, r0
    32f6:	08 95       	ret
    32f8:	2f 92       	push	r2
    32fa:	3f 92       	push	r3
    32fc:	4f 92       	push	r4
    32fe:	5f 92       	push	r5
    3300:	6f 92       	push	r6
    3302:	7f 92       	push	r7
    3304:	8f 92       	push	r8
    3306:	9f 92       	push	r9
    3308:	af 92       	push	r10
    330a:	bf 92       	push	r11
    330c:	cf 92       	push	r12
    330e:	df 92       	push	r13
    3310:	ef 92       	push	r14
    3312:	ff 92       	push	r15
    3314:	0f 93       	push	r16
    3316:	1f 93       	push	r17
    3318:	cf 93       	push	r28
    331a:	df 93       	push	r29
    331c:	cd b7       	in	r28, 0x3d	; 61
    331e:	de b7       	in	r29, 0x3e	; 62
    3320:	ca 1b       	sub	r28, r26
    3322:	db 0b       	sbc	r29, r27
    3324:	0f b6       	in	r0, 0x3f	; 63
    3326:	f8 94       	cli
    3328:	de bf       	out	0x3e, r29	; 62
    332a:	0f be       	out	0x3f, r0	; 63
    332c:	cd bf       	out	0x3d, r28	; 61
    332e:	09 94       	ijmp
    3330:	2a 88       	ldd	r2, Y+18	; 0x12
    3332:	39 88       	ldd	r3, Y+17	; 0x11
    3334:	48 88       	ldd	r4, Y+16	; 0x10
    3336:	5f 84       	ldd	r5, Y+15	; 0x0f
    3338:	6e 84       	ldd	r6, Y+14	; 0x0e
    333a:	7d 84       	ldd	r7, Y+13	; 0x0d
    333c:	8c 84       	ldd	r8, Y+12	; 0x0c
    333e:	9b 84       	ldd	r9, Y+11	; 0x0b
    3340:	aa 84       	ldd	r10, Y+10	; 0x0a
    3342:	b9 84       	ldd	r11, Y+9	; 0x09
    3344:	c8 84       	ldd	r12, Y+8	; 0x08
    3346:	df 80       	ldd	r13, Y+7	; 0x07
    3348:	ee 80       	ldd	r14, Y+6	; 0x06
    334a:	fd 80       	ldd	r15, Y+5	; 0x05
    334c:	0c 81       	ldd	r16, Y+4	; 0x04
    334e:	1b 81       	ldd	r17, Y+3	; 0x03
    3350:	aa 81       	ldd	r26, Y+2	; 0x02
    3352:	b9 81       	ldd	r27, Y+1	; 0x01
    3354:	ce 0f       	add	r28, r30
    3356:	d1 1d       	adc	r29, r1
    3358:	0f b6       	in	r0, 0x3f	; 63
    335a:	f8 94       	cli
    335c:	de bf       	out	0x3e, r29	; 62
    335e:	0f be       	out	0x3f, r0	; 63
    3360:	cd bf       	out	0x3d, r28	; 61
    3362:	ed 01       	movw	r28, r26
    3364:	08 95       	ret
    3366:	f8 94       	cli
    3368:	ff cf       	rjmp	.-2      	;  0x3368
